(dp0
S'6e467329-6d5b-4523-8454-193af31cf93d'
p1
(lp2
ccopy_reg
_reconstructor
p3
(cuuid
UUID
p4
c__builtin__
object
p5
Ntp6
Rp7
(dp8
S'int'
p9
L250049353166269397004042047087449131666L
sbaF6517.515370383886
aF13277.114470105333
aF20221.817194717398
aF152.30581343746576
aF83.13720254235778
aF64.44415086646572
aF82.53869598118058
aF63.98021599803636
aF13236.817138017794
aF26779.62989718883
aF0.4942867839785687
aF0.9188907942009547
aF0.8115809404336684
aF0.1594014175966816
aI00
aF0.9058909058211008
as.