(dp0
S'6e467329-6d5b-4523-8454-193af31cf93d'
p1
(lp2
ccopy_reg
_reconstructor
p3
(cuuid
UUID
p4
c__builtin__
object
p5
Ntp6
Rp7
(dp8
S'int'
p9
L250049353166269397004042047087449131666L
sbaF6517.515370383886
aF15585.748106853553
aF20221.817194717398
aF129.74556662971614
aF76.27454853720253
aF59.55524816239608
aF88.89263816495497
aF69.40746588807197
aF13240.264812537682
aF29084.815859417155
aF0.4552294529398135
aF0.7849510569595358
aF0.7095321713502913
aF0.1142354571721155
aI00
aF0.7993097326491528
as.