(dp0
S'6e467329-6d5b-4523-8454-193af31cf93d'
p1
(lp2
ccopy_reg
_reconstructor
p3
(cuuid
UUID
p4
c__builtin__
object
p5
Ntp6
Rp7
(dp8
S'int'
p9
L250049353166269397004042047087449131666L
sbaF6517.515370383886
aF13717.1140473273
aF20221.817194717398
aF147.4203474939942
aF83.63313326395333
aF64.97834916597127
aF85.78268070673938
aF66.6484294180808
aF13583.067036824768
aF26873.37957560382
aF0.5054469237339893
aF0.9195835552042823
aF0.8003299845016484
aF0.1468941556317209
aI00
aF0.9112806172490383
as.