(dp0
S'919b6985-f1b0-4b60-855a-750ffeb7273b'
p1
(lp2
ccopy_reg
_reconstructor
p3
(cuuid
UUID
p4
c__builtin__
object
p5
Ntp6
Rp7
(dp8
S'int'
p9
L338628214762289781157688927750164761234L
sbaF5257.900811843094
aF27208.811301064
aF44909.4802628591
aF165.05491462283365
aF92.39385688305889
aF78.66877909018284
aF90.01329104429325
aF76.64184554289602
aF22963.48941214707
aF54412.70296361911
aF0.422024420060527
aF0.8973343921328433
aF0.8939411561600105
aF0.08532082495951639
aI00
aF0.8255322566909614
asS'61134256-8252-41ee-9035-1436fdd5b61e'
p10
(lp11
g3
(g4
g5
Ntp12
Rp13
(dp14
g9
L338628214920746106186217602937252661906L
sbaF4612.65734588699
aF52227.5566905902
aF48414.17765753479
aF92.69853067098875
aF92.39385688305889
aF78.66877909018284
aF90.01329104429325
aF76.64184554289602
aF48687.84998496966
aF56566.54170904232
aF0.8607181650842687
aF0.9297876238884756
aF0.8939411561600105
aF0.5675184396426044
aI00
aF0.9086093155871812
as.