(dp0
S'919b6985-f1b0-4b60-855a-750ffeb7273b'
p1
(lp2
ccopy_reg
_reconstructor
p3
(cuuid
UUID
p4
c__builtin__
object
p5
Ntp6
Rp7
(dp8
S'int'
p9
L338628214762289781157688927750164761234L
sbaF5257.900811843094
aF28689.11329290138
aF44909.4802628591
aF156.53840467063569
aF87.88903009227622
aF74.92745163759767
aF90.28295650139047
aF76.96832983427994
aF22772.231340058865
aF56084.26302754472
aF0.40603602705583763
aF0.8434456807581378
aF0.8586123299926823
aF0.07133418252275214
aI00
aF0.7830767413938511
asS'61134256-8252-41ee-9035-1436fdd5b61e'
p10
(lp11
g3
(g4
g5
Ntp12
Rp13
(dp14
g9
L338628214920746106186217602937252661906L
sbaF4612.65734588699
aF55069.00960606009
aF48414.17765753479
aF87.91546825314074
aF87.88903009227622
aF74.92745163759767
aF90.28295650139047
aF76.96832983427994
aF48515.51488616449
aF59580.32972331738
aF0.8142874521081652
aF0.8818325167867789
aF0.8586123299926823
aF0.30289369233527913
aI00
aF0.8702333367352578
as.