(dp0
S'919b6985-f1b0-4b60-855a-750ffeb7273b'
p1
(lp2
ccopy_reg
_reconstructor
p3
(cuuid
UUID
p4
c__builtin__
object
p5
Ntp6
Rp7
(dp8
S'int'
p9
L338628214762289781157688927750164761234L
sbaF5257.900811843094
aF27627.758424191114
aF44909.4802628591
aF162.55202312590063
aF93.51688029398788
aF79.50505513330329
aF92.51020332852148
aF78.6492106334737
aF23235.965534433057
aF54559.17396446026
aF0.42588558158099904
aF0.8942539430720454
aF0.8901658248806361
aF0.09046922634696682
aI00
aF0.8246468680306908
asS'61134256-8252-41ee-9035-1436fdd5b61e'
p10
(lp11
g3
(g4
g5
Ntp12
Rp13
(dp14
g9
L338628214920746106186217602937252661906L
sbaF4612.65734588699
aF53031.729441151496
aF48414.17765753479
aF91.29285084179514
aF93.51688029398788
aF79.50505513330329
aF92.51020332852148
aF78.6492106334737
aF49746.293118772286
aF56312.27132580097
aF0.8834005794395954
aF0.9217977576327886
aF0.8901658248806361
aF0.6572084229010583
aI00
aF0.9370959942926039
as.