(dp0
S'096621fb-2202-43ca-bd6c-38e97b8909db'
p1
(lp2
ccopy_reg
_reconstructor
p3
(cuuid
UUID
p4
c__builtin__
object
p5
Ntp6
Rp7
(dp8
S'int'
p9
L25744427690474796779723875108353133202L
sbaF7300.962243583002
aF12779.851974511565
aF4058.3434339983055
aF31.755793745439
aF74.34542196597963
aF64.98496733142655
aF96.66852818899225
aF84.49748458235106
aF11083.185300798286
aF13055.972351294587
aF0.8488977306772034
aF0.3319914944937831
aF0.557014755272077
aF0.806890689534262
aI00
aF0.8514344851329475
asS'97c6b11a-d61a-43f5-b1ff-fe83814d38ec'
p10
(lp11
g3
(g4
g5
Ntp12
Rp13
(dp14
g9
L25744426739736846608551823985825729170L
sbaF55638.09867598717
aF127929.0620711582
aF50954.441554908204
aF39.83023148138593
aF74.34542196597963
aF64.98496733142655
aF96.66852818899225
aF84.49748458235106
aF104802.5181644097
aF129719.08413764383
aF0.8079190418366247
aF0.39622773709228193
aF0.557014755272077
aF0.6870274988523563
aI00
aF0.812642790133517
asS'92f3122f-b1fa-4626-ae60-4f2cd3508cdc'
p15
(lp16
g3
(g4
g5
Ntp17
Rp18
(dp19
g9
L25744427056649496665609174360001530514L
sbaF11078.013730780049
aF25478.71935786715
aF5613.593857433483
aF22.032480434304695
aF74.34542196597963
aF64.98496733142655
aF96.66852818899225
aF84.49748458235106
aF14737.216677079165
aF27433.11026900152
aF0.5372054620336549
aF0.21351778782678926
aF0.557014755272077
aF0.42832116910340595
aI00
aF0.5779731284368194
as.