(dp0
S'096621fb-2202-43ca-bd6c-38e97b8909db'
p1
(lp2
ccopy_reg
_reconstructor
p3
(cuuid
UUID
p4
c__builtin__
object
p5
Ntp6
Rp7
(dp8
S'int'
p9
L25744427690474796779723875108353133202L
sbaF7300.962243583002
aF11981.922222718402
aF4058.3434339983055
aF33.87055397758681
aF74.75622291391029
aF65.45435239996188
aF91.13367812590823
aF79.79397100395688
aF9840.002399538864
aF13501.225500760847
aF0.7288229056676626
aF0.4191652733131576
aF0.566269528535794
aF0.6818943088369291
aI00
aF0.7288229056676626
asS'97c6b11a-d61a-43f5-b1ff-fe83814d38ec'
p10
(lp11
g3
(g4
g5
Ntp12
Rp13
(dp14
g9
L25744426739736846608551823985825729170L
sbaF55638.09867598717
aF119941.6139419342
aF50954.441554908204
aF42.482704609574554
aF74.75622291391029
aF65.45435239996188
aF91.13367812590823
aF79.79397100395688
aF102539.84963080451
aF123994.30454202506
aF0.8269722549720093
aF0.4141545379970944
aF0.566269528535794
aF0.7237895001443478
aI00
aF0.8452858309588536
asS'92f3122f-b1fa-4626-ae60-4f2cd3508cdc'
p15
(lp16
g3
(g4
g5
Ntp17
Rp18
(dp19
g9
L25744427056649496665609174360001530514L
sbaF11078.013730780049
aF23887.916252026975
aF5613.593857433483
aF23.49972177651598
aF74.75622291391029
aF65.45435239996188
aF91.13367812590823
aF79.79397100395688
aF11262.010103568195
aF29317.51373667231
aF0.3841393306650324
aF0.17253922998756982
aF0.566269528535794
aF0.3031077452406901
aI00
aF0.4711332871584448
as.