(dp0
S'096621fb-2202-43ca-bd6c-38e97b8909db'
p1
(lp2
ccopy_reg
_reconstructor
p3
(cuuid
UUID
p4
c__builtin__
object
p5
Ntp6
Rp7
(dp8
S'int'
p9
L25744427690474796779723875108353133202L
sbaF7300.962243583002
aF12365.644651632716
aF4058.3434339983055
aF32.81950556020916
aF75.56810268118174
aF66.55078244992632
aF95.07368616594682
aF83.72882182098411
aF10548.638233144195
aF13176.31209606983
aF0.8005759241457702
aF0.36274808986538926
aF0.5659816593802184
aF0.7468131505451036
aI00
aF0.8005759241457702
asS'97c6b11a-d61a-43f5-b1ff-fe83814d38ec'
p10
(lp11
g3
(g4
g5
Ntp12
Rp13
(dp14
g9
L25744426739736846608551823985825729170L
sbaF55638.09867598717
aF123782.75783973368
aF50954.441554908204
aF41.16440968368219
aF75.56810268118174
aF66.55078244992632
aF95.07368616594682
aF83.72882182098411
aF103589.30881087408
aF126785.98925975499
aF0.8170406636859826
aF0.4056274952974828
aF0.5659816593802184
aF0.7039236360451633
aI00
aF0.8282570795468148
asS'92f3122f-b1fa-4626-ae60-4f2cd3508cdc'
p15
(lp16
g3
(g4
g5
Ntp17
Rp18
(dp19
g9
L25744427056649496665609174360001530514L
sbaF11078.013730780049
aF24652.929500781815
aF5613.593857433483
aF22.77049409992212
aF75.56810268118174
aF66.55078244992632
aF95.07368616594682
aF83.72882182098411
aF14644.616324865337
aF26699.92076413001
aF0.5484891305198043
aF0.21611243704165614
aF0.5659816593802184
aF0.44417675216742164
aI00
aF0.5935773186007517
as.