(dp0
S'd37731be-5870-4690-b481-81ff38e984cc'
p1
(lp2
ccopy_reg
_reconstructor
p3
(cuuid
UUID
p4
c__builtin__
object
p5
Ntp6
Rp7
(dp8
S'int'
p9
L6334289804657598036186238051966438034L
sbaF14076.129547106102
aF17345.87691411724
aF80194.53732781758
aF462.3262215273179
aF79.1920165017946
aF37.02634423410701
aF92.36640527796703
aF43.186049157007425
aF15739.864687676247
aF95876.67910136472
aF0.16416781260263952
aF0.907787753520056
aF0.6972294615628021
aF0.06158748218960637
aI00
aF0.7981418326906752
asS'f126168f-b746-4e18-8412-6d8786f7d588'
p10
(lp11
g3
(g4
g5
Ntp12
Rp13
(dp14
g9
L6334289566973110493393225271334587026L
sbaF34614.164364662705
aF98287.73007793071
aF128983.17894434907
aF131.230194086363
aF79.1920165017946
aF37.02634423410701
aF92.36640527796703
aF43.186049157007425
aF53952.184306504125
aF207932.88908043833
aF0.25946921886721275
aF0.42805105277705646
aF0.6972294615628021
aF0.15264162331919243
aI00
aF0.4959924632419953
as.