(dp0
S'd37731be-5870-4690-b481-81ff38e984cc'
p1
(lp2
ccopy_reg
_reconstructor
p3
(cuuid
UUID
p4
c__builtin__
object
p5
Ntp6
Rp7
(dp8
S'int'
p9
L6334289804657598036186238051966438034L
sbaF14076.129547106102
aF15317.928458801909
aF80194.53732781758
aF523.5338286342277
aF83.24184657531279
aF38.047893901130244
aF85.73894248252898
aF39.18925781900957
aF13027.84943266151
aF96560.74590106407
aF0.13491869093482164
aF0.9212439844110234
aF0.7551363958994256
aF0.036992966161301426
aI00
aF0.6125447603966162
asS'f126168f-b746-4e18-8412-6d8786f7d588'
p10
(lp11
g3
(g4
g5
Ntp12
Rp13
(dp14
g9
L6334289566973110493393225271334587026L
sbaF34614.164364662705
aF86796.67365138768
aF128983.17894434907
aF148.60382721854103
aF83.24184657531279
aF38.047893901130244
aF85.73894248252898
aF39.18925781900957
aF54033.795693749984
aF196360.2212666495
aF0.27517689349297586
aF0.48271271197753274
aF0.7551363958994256
aF0.18314114368390863
aI00
aF0.525298411022076
as.