(dp0
S'd37731be-5870-4690-b481-81ff38e984cc'
p1
(lp2
ccopy_reg
_reconstructor
p3
(cuuid
UUID
p4
c__builtin__
object
p5
Ntp6
Rp7
(dp8
S'int'
p9
L6334289804657598036186238051966438034L
sbaF14076.129547106102
aF15923.836301902444
aF80194.53732781758
aF503.6131734049327
aF81.19954955393354
aF37.71547953966794
aF86.94361715621548
aF40.38347788840803
aF15090.491803104098
aF95104.01137372204
aF0.15867355735190067
aF0.9340669334056644
aF0.7416388087508944
aF0.043113551604437354
aI00
aF0.8266084729905533
asS'f126168f-b746-4e18-8412-6d8786f7d588'
p10
(lp11
g3
(g4
g5
Ntp12
Rp13
(dp14
g9
L6334289566973110493393225271334587026L
sbaF34614.164364662705
aF90229.9567785324
aF128983.17894434907
aF142.94939679616124
aF81.19954955393354
aF37.71547953966794
aF86.94361715621548
aF40.38347788840803
aF50731.10291561422
aF203096.19717192993
aF0.24978854169617018
aF0.46602660597071066
aF0.7416388087508944
aF0.12743562360002123
aI00
aF0.45670364505453215
as.