(dp0
S'a7b82e09-29d1-49c1-8aa0-1647c741baf2'
p1
(lp2
ccopy_reg
_reconstructor
p3
(cuuid
UUID
p4
c__builtin__
object
p5
Ntp6
Rp7
(dp8
S'int'
p9
L65430709960410770073422195992610917010L
sbaF1276.1472342590296
aF11862.202290236733
aF10438.175136296337
aF87.99525485151732
aF88.10810410757294
aF88.10810410757294
aF90.36953060167123
aF90.36953060167123
aF10875.703333321095
aF12700.821327471007
aF0.8562992150592413
aF0.9044260936224398
aF0.865389867464793
aF0.5786791390043463
aI00
aF0.8562992150592413
asS'9a2e9e79-6c3d-48ae-b661-3729ce6ef326'
p10
(lp11
g3
(g4
g5
Ntp12
Rp13
(dp14
g9
L65430709405813632473571832837803264658L
sbaF2736.5218874990333
aF11661.888310475233
aF8481.292917476258
aF72.72658330862231
aF88.10810410757294
aF88.10810410757294
aF90.36953060167123
aF90.36953060167123
aF10822.787244591444
aF12056.91587085908
aF0.8976414333909006
aF0.7507084848971147
aF0.865389867464793
aF0.7595639545027657
aI00
aF0.9056591145216802
as.