(dp0
S'a7b82e09-29d1-49c1-8aa0-1647c741baf2'
p1
(lp2
ccopy_reg
_reconstructor
p3
(cuuid
UUID
p4
c__builtin__
object
p5
Ntp6
Rp7
(dp8
S'int'
p9
L65430709960410770073422195992610917010L
sbaF1276.1472342590296
aF11943.487752254932
aF10438.175136296337
aF87.39637326061316
aF86.39661615708901
aF86.43160722470672
aF89.22134088460648
aF89.25747598006161
aF10936.39641233626
aF12721.413710474038
aF0.8596840462260807
aF0.8935986439058025
aF0.8593299339951779
aF0.4158041329607101
aI00
aF0.8888203759941414
asS'9a2e9e79-6c3d-48ae-b661-3729ce6ef326'
p10
(lp11
g3
(g4
g5
Ntp12
Rp13
(dp14
g9
L65430709405813632473571832837803264658L
sbaF2736.5218874990333
aF11741.801125661501
aF8481.292917476258
aF72.23161784728698
aF86.39661615708901
aF86.43160722470672
aF89.22134088460648
aF89.25747598006161
aF9910.311205309623
aF13049.304725327169
aF0.759451282187845
aF0.790482646967743
aF0.8593299339951779
aF0.4975105768272481
aI00
aF0.7728472084518127
as.