(dp0
S'a7b82e09-29d1-49c1-8aa0-1647c741baf2'
p1
(lp2
ccopy_reg
_reconstructor
p3
(cuuid
UUID
p4
c__builtin__
object
p5
Ntp6
Rp7
(dp8
S'int'
p9
L65430709960410770073422195992610917010L
sbaF1276.1472342590296
aF12169.906563824181
aF10438.175136296337
aF85.77038025357133
aF89.3570247613835
aF89.3570247613835
aF94.02791113097487
aF94.02791113097487
aF11299.309284910785
aF12584.919649468764
aF0.8978451670438558
aF0.8852548499528141
aF0.8612929611853936
aF0.6297989628626964
aI00
aF0.9129842682088202
asS'9a2e9e79-6c3d-48ae-b661-3729ce6ef326'
p10
(lp11
g3
(g4
g5
Ntp12
Rp13
(dp14
g9
L65430709405813632473571832837803264658L
sbaF2736.5218874990333
aF11964.396460600638
aF8481.292917476258
aF70.88776224864817
aF89.3570247613835
aF89.3570247613835
aF94.02791113097487
aF94.02791113097487
aF11135.421544257084
aF12046.789721318844
aF0.924347631348712
aF0.7374541350859847
aF0.8612929611853936
aF0.8632138998132792
aI00
aF0.9307131856526646
as.