(dp0
S'2a0cfb21-2c7b-45a4-b8ce-0959b8ba7af2'
p1
(lp2
ccopy_reg
_reconstructor
p3
(cuuid
UUID
p4
c__builtin__
object
p5
Ntp6
Rp7
(dp8
S'int'
p9
L87784504619449191678801006622061546130L
sbaF8878.93326116028
aF33029.613195819795
aF24378.72919476866
aF73.8087032695073
aF82.6943273677196
aF73.30623203222503
aF91.43915682030669
aF81.0582812638852
aF31374.340305782593
aF34912.93534596614
aF0.898645158159341
aF0.7351503494404493
aF0.7952812815378805
aF0.8781221897918806
aI00
aF0.9390190401088655
asS'fd01a700-6fa5-443a-9048-08d9f1af4c74'
p10
(lp11
g3
(g4
g5
Ntp12
Rp13
(dp14
g9
L87784505094818166764387032183325248146L
sbaF1674.266613784653
aF2864.34843317593
aF1375.8674839971488
aF48.03422195642643
aF82.6943273677196
aF73.30623203222503
aF91.43915682030669
aF81.0582812638852
aF2693.523397011545
aF3220.9591339461876
aF0.8362488578709628
aF0.45977122319776015
aF0.7952812815378805
aF0.7642976797157272
aI00
aF0.9303378274158232
as.