(dp0
S'2a0cfb21-2c7b-45a4-b8ce-0959b8ba7af2'
p1
(lp2
ccopy_reg
_reconstructor
p3
(cuuid
UUID
p4
c__builtin__
object
p5
Ntp6
Rp7
(dp8
S'int'
p9
L87784504619449191678801006622061546130L
sbaF8878.93326116028
aF31692.45608827142
aF24378.72919476866
aF76.92281446053849
aF84.03076079096606
aF74.02324948484085
aF89.15530677241233
aF78.53749572170126
aF29655.755994730447
aF35294.362549469915
aF0.8402405895038851
aF0.7639201107119444
aF0.8153332701679381
aF0.7463279011087115
aI00
aF0.8861586792922581
asS'fd01a700-6fa5-443a-9048-08d9f1af4c74'
p10
(lp11
g3
(g4
g5
Ntp12
Rp13
(dp14
g9
L87784505094818166764387032183325248146L
sbaF1674.266613784653
aF2748.389343882058
aF1375.8674839971488
aF50.06086517763008
aF84.03076079096606
aF74.02324948484085
aF89.15530677241233
aF78.53749572170126
aF2678.7675710455983
aF3119.755870618263
aF0.8586465358633106
aF0.46478808761921914
aF0.8153332701679381
aF0.828884597674969
aI00
aF0.9645003893242347
as.