(dp0
S'2a0cfb21-2c7b-45a4-b8ce-0959b8ba7af2'
p1
(lp2
ccopy_reg
_reconstructor
p3
(cuuid
UUID
p4
c__builtin__
object
p5
Ntp6
Rp7
(dp8
S'int'
p9
L87784504619449191678801006622061546130L
sbaF8878.93326116028
aF32215.47246863706
aF24378.72919476866
aF75.67397690194439
aF84.55715074084415
aF74.93914806127523
aF91.19433303361001
aF80.82138016334393
aF31019.918647231258
aF34453.216277334745
aF0.9003489949249788
aF0.7373633035161907
aF0.810334396845218
aF0.8799298574379996
aI00
aF0.9502440927479894
asS'fd01a700-6fa5-443a-9048-08d9f1af4c74'
p10
(lp11
g3
(g4
g5
Ntp12
Rp13
(dp14
g9
L87784505094818166764387032183325248146L
sbaF1674.266613784653
aF2793.7456470498755
aF1375.8674839971488
aF49.24812985212272
aF84.55715074084415
aF74.93914806127523
aF91.19433303361001
aF80.82138016334393
aF2731.3279505487894
aF3112.551794282887
aF0.8775204819292238
aF0.4702247986504467
aF0.810334396845218
aF0.816290823719685
aI00
aF0.9651396140414595
as.