(dp0
S'c2eddf15-d5d9-4218-a80f-73fa5e29d9ea'
p1
(lp2
ccopy_reg
_reconstructor
p3
(cuuid
UUID
p4
c__builtin__
object
p5
Ntp6
Rp7
(dp8
S'int'
p9
L25171040557056465345794549030532860562L
sbaF5017.830428645044
aF24727.273348106228
aF37990.697534092455
aF153.6388464642505
aF74.66190410036992
aF66.92544550140029
aF93.7554898969943
aF84.040555959077
aF22086.834404099827
aF45648.96690674389
aF0.48384083804614775
aF0.9385024254134336
aF0.6679315825641494
aF0.1683045320110877
aI00
aF0.8762176842796737
asS'f24dd147-92e7-4e5a-bdc3-792421d81442'
p10
(lp11
g3
(g4
g5
Ntp12
Rp13
(dp14
g9
L25171040953197277917116236998252612242L
sbaF16298.12200180163
aF23527.251258747954
aF3114.181419663428
aF13.2364864276506
aF74.66190410036992
aF66.92544550140029
aF93.7554898969943
aF84.040555959077
aF17840.282563520614
aF25099.2721166924
aF0.710788842026054
aF0.11799427436291601
aF0.6679315825641494
aF0.7115266925997471
aI00
aF0.7371864350498909
as.