(dp0
S'c2eddf15-d5d9-4218-a80f-73fa5e29d9ea'
p1
(lp2
ccopy_reg
_reconstructor
p3
(cuuid
UUID
p4
c__builtin__
object
p5
Ntp6
Rp7
(dp8
S'int'
p9
L25171040557056465345794549030532860562L
sbaF5017.830428645044
aF25328.34408279961
aF37990.697534092455
aF149.99281994077066
aF72.47934975039904
aF64.5545691486881
aF93.22717020693273
aF83.03385483431191
aF21762.63600841108
aF46574.23603712603
aF0.4672676969100102
aF0.9197024823890754
aF0.6508523828653158
aF0.1659093637760326
aI00
aF0.8309651232165273
asS'f24dd147-92e7-4e5a-bdc3-792421d81442'
p10
(lp11
g3
(g4
g5
Ntp12
Rp13
(dp14
g9
L25171040953197277917116236998252612242L
sbaF16298.12200180163
aF24099.151848041798
aF3114.181419663428
aF12.922369381711144
aF72.47934975039904
aF64.5545691486881
aF93.22717020693273
aF83.03385483431191
aF18176.93297110379
aF25334.522298403062
aF0.7174768387975311
aF0.12202602757388345
aF0.6508523828653158
aF0.7251807137282109
aI00
aF0.7539878292681489
as.