(dp0
S'c2eddf15-d5d9-4218-a80f-73fa5e29d9ea'
p1
(lp2
ccopy_reg
_reconstructor
p3
(cuuid
UUID
p4
c__builtin__
object
p5
Ntp6
Rp7
(dp8
S'int'
p9
L25171040557056465345794549030532860562L
sbaF5017.830428645044
aF24726.20413319544
aF37990.697534092455
aF153.6454901425373
aF73.89089312805551
aF66.45541011353791
aF92.78329306943185
aF83.4467081339491
aF21896.667497814495
aF45838.06459811844
aF0.4776961612535732
aF0.9305992526010545
aF0.6666684399094575
aF0.1727304211062091
aI00
aF0.8723370418763833
asS'f24dd147-92e7-4e5a-bdc3-792421d81442'
p10
(lp11
g3
(g4
g5
Ntp12
Rp13
(dp14
g9
L25171040953197277917116236998252612242L
sbaF16298.12200180163
aF23526.23393316168
aF3114.181419663428
aF13.237058802147663
aF73.89089312805551
aF66.45541011353791
aF92.78329306943185
aF83.4467081339491
aF18481.460606693177
aF24457.07674793356
aF0.7556692403254908
aF0.10779550269641427
aF0.6666684399094575
aF0.7633786163785256
aI00
aF0.7853971496088408
as.