(dp0
S'480c3c42-0e7e-483e-bd06-d5391c075842'
p1
(lp2
ccopy_reg
_reconstructor
p3
(cuuid
UUID
p4
c__builtin__
object
p5
Ntp6
Rp7
(dp8
S'int'
p9
L311814146541852479374360159221875395218L
sbaF9641.199246102922
aF52821.25198905771
aF58032.78864197636
aF109.86636336071372
aF52.62947476332337
aF47.42179367314054
aF94.8666973270716
aF85.4796474281322
aF42201.83727169741
aF78293.40260543958
aF0.5390216272036867
aF0.7240844389861187
aF0.4591004203951957
aF0.20873527597947433
aI01
aF0.782605147543341
asS'ce24ba10-a7c7-4d37-bd7a-7013f8cbc96a'
p10
(lp11
g3
(g4
g5
Ntp12
Rp13
(dp14
g9
L311814146462624316860095821628331444882L
sbaF23425.611538624078
aF104572.449257439
aF48106.91919283614
aF46.003435450197166
aF52.62947476332337
aF47.42179367314054
aF94.8666973270716
aF85.4796474281322
aF68061.19745576529
aF108043.78253313393
aF0.6299408985879671
aF0.4499215961276395
aF0.4591004203951957
aF0.3560440033005776
aI00
aF0.634705036027082
as.