(dp0
S'480c3c42-0e7e-483e-bd06-d5391c075842'
p1
(lp2
ccopy_reg
_reconstructor
p3
(cuuid
UUID
p4
c__builtin__
object
p5
Ntp6
Rp7
(dp8
S'int'
p9
L311814146541852479374360159221875395218L
sbaF9641.199246102922
aF53524.2411554933
aF58032.78864197636
aF108.42337488426091
aF52.56068652223143
aF47.397230401995856
aF96.00361854236117
aF86.57241616417977
aF42619.487698916884
aF78578.74134465566
aF0.5423793632934736
aF0.7238281325122111
aF0.45382338539812134
aF0.20018739519318546
aI01
aF0.7844362391353104
asS'ce24ba10-a7c7-4d37-bd7a-7013f8cbc96a'
p10
(lp11
g3
(g4
g5
Ntp12
Rp13
(dp14
g9
L311814146462624316860095821628331444882L
sbaF23425.611538624078
aF105964.18641184879
aF48106.91919283614
aF45.399224796442056
aF52.56068652223143
aF47.397230401995856
aF96.00361854236117
aF86.57241616417977
aF68771.75458590187
aF108724.96255740715
aF0.6325295770931183
aF0.4468198597224395
aF0.45382338539812134
aF0.3572924511290458
aI00
aF0.6362250955541079
as.