(dp0
S'480c3c42-0e7e-483e-bd06-d5391c075842'
p1
(lp2
ccopy_reg
_reconstructor
p3
(cuuid
UUID
p4
c__builtin__
object
p5
Ntp6
Rp7
(dp8
S'int'
p9
L311814146541852479374360159221875395218L
sbaF9641.199246102922
aF53790.75251101412
aF58032.78864197636
aF107.88618104960261
aF52.54342026489305
aF47.36441105686521
aF96.44995160246972
aF86.94323915503543
aF42475.42236883031
aF78989.31803026308
aF0.5377362841967663
aF0.710859036170689
aF0.4510898434174947
aF0.21455437650413325
aI01
aF0.7850890734192432
asS'ce24ba10-a7c7-4d37-bd7a-7013f8cbc96a'
p10
(lp11
g3
(g4
g5
Ntp12
Rp13
(dp14
g9
L311814146462624316860095821628331444882L
sbaF23425.611538624078
aF106491.81012677906
aF48106.91919283614
aF45.174290056263104
aF52.54342026489305
aF47.36441105686521
aF96.44995160246972
aF86.94323915503543
aF69599.82097082763
aF108424.51988741168
aF0.641919568037749
aF0.4480316874350048
aF0.4510898434174947
aF0.3646542315606317
aI00
aF0.6449680237614194
as.