(dp0
S'5b4810f9-4994-4009-af68-58da5924084a'
p1
(lp2
ccopy_reg
_reconstructor
p3
(cuuid
UUID
p4
c__builtin__
object
p5
Ntp6
Rp7
(dp8
S'int'
p9
L263863228958792861504075941015737780882L
sbaF1665.514882908308
aF7960.467918192033
aF936.9320928274744
aF11.76981180573954
aF38.707558699560686
aF13.877368158386638
aF72.33657573966445
aF25.933986192410945
aF1086.2871936841884
aF9476.627700243625
aF0.11462803309834174
aF0.8242404763152497
aF0.35619667922310433
aF0.10290766534100353
aI01
aF0.12472076683669729
asS'919b6985-f1b0-4b60-855a-750ffeb7273b'
p10
(lp11
g3
(g4
g5
Ntp12
Rp13
(dp14
g9
L263863228800336536475547265828649880210L
sbaF17580.406492261827
aF79847.83971397643
aF225921.18116035985
aF282.93962863570744
aF38.707558699560686
aF13.877368158386638
aF72.33657573966445
aF25.933986192410945
aF61896.33498439135
aF261453.09238220679
aF0.23673973185946418
aF0.7703900147862235
aF0.35619667922310433
aF0.010760934420492392
aI00
aF0.4941753376170173
as.