(dp0
S'61134256-8252-41ee-9035-1436fdd5b61e'
p1
(lp2
ccopy_reg
_reconstructor
p3
(cuuid
UUID
p4
c__builtin__
object
p5
Ntp6
Rp7
(dp8
S'int'
p9
L263863228800336536475547265828649880210L
sbaF17580.406492261827
aF212167.59241996336
aF225921.18116035985
aF106.48241731148683
aF33.293573877940844
aF30.41425169556694
aF86.128784657018
aF78.68012441065832
aF208375.28386443164
aF247293.89620815343
aF0.8426220260973889
aF0.9447386722124312
aF0.3074388605902093
aF0.3716463020641055
aI00
aF0.84611344015573
asS'2587af1d-bfda-4522-a407-21fc7d51ce21'
p10
(lp11
g3
(g4
g5
Ntp12
Rp13
(dp14
g9
L263863228958792861504075941015737780882L
sbaF1665.514882908308
aF15199.75860660019
aF936.9320928274744
aF6.164124819854906
aF33.293573877940844
aF30.41425169556694
aF86.128784657018
aF78.68012441065832
aF1715.3453109471545
aF16086.860271388818
aF0.10663021136560569
aF0.05420594563996219
aF0.3074388605902093
aF0.059219639836304586
aI01
aF0.11285345743598192
asS'28c0c62c-1f02-4360-b8a6-1d916eb20809'
p15
(lp16
g3
(g4
g5
Ntp17
Rp18
(dp19
g9
L263863228879564698989811603422193830546L
sbaF11264.053911869882
aF13127.542381340481
aF27924.44396816604
aF212.71646403410517
aF33.293573877940844
aF30.41425169556694
aF86.128784657018
aF78.68012441065832
aF13122.98617212023
aF39193.05408925618
aF0.33482938436577664
aF0.9227896464010106
aF0.3074388605902093
aF0.09191221031051888
aI01
aF0.683545424621035
as.