(dp0
S'5b4810f9-4994-4009-af68-58da5924084a'
p1
(lp2
ccopy_reg
_reconstructor
p3
(cuuid
UUID
p4
c__builtin__
object
p5
Ntp6
Rp7
(dp8
S'int'
p9
L263863228879564698989811603422193830546L
sbaF11264.053911869882
aF1445.8656818609338
aF27924.44396816604
aF1931.3304353572637
aF84.52141832662214
aF25.440979092936804
aF28.68919053140866
aF8.63545727169789
aF1445.8656818609338
aF39188.497880035924
aF0.036895154447793
aF1.0
aF0.8436044121618216
aF0.0
aI01
aF0.036897267010028115
asS'61134256-8252-41ee-9035-1436fdd5b61e'
p10
(lp11
g3
(g4
g5
Ntp12
Rp13
(dp14
g9
L263863228800336536475547265828649880210L
sbaF17580.406492261827
aF27838.297037296034
aF225921.18116035985
aF811.5481376525461
aF84.52141832662214
aF25.440979092936804
aF28.68919053140866
aF8.63545727169789
aF17815.100771593203
aF253524.78391832457
aF0.07026966159384444
aF0.6355221337366211
aF0.8436044121618216
aF0.005186121251144545
aI00
aF0.09129839056894551
asS'ff208d00-7d40-4447-a816-98cd3996d382'
p15
(lp16
g3
(g4
g5
Ntp17
Rp18
(dp19
g9
L263863228958792861504075941015737780882L
sbaF1665.514882908308
aF5888.079583767755
aF936.9320928274744
aF15.912354435738383
aF84.52141832662214
aF25.440979092936804
aF28.68919053140866
aF8.63545727169789
aF0.0
aF8490.526559503538
aF0.0
aF1.0
aF0.8436044121618216
aF0.0
aI01
aF0.0
as.