(dp0
S'590f12d9-048b-4408-9515-9e0daa4f249b'
p1
(lp2
ccopy_reg
_reconstructor
p3
(cuuid
UUID
p4
c__builtin__
object
p5
Ntp6
Rp7
(dp8
S'int'
p9
L158410118328220548937299004227800976018L
sbaF8053.039438372223
aF153208.78406004136
aF57432.67152764236
aF37.48653961324758
aF28.09156399409408
aF23.438854436589015
aF57.95206440796166
aF48.35366241066596
aF65485.71096601458
aF153208.78406004136
aF0.4274279139266011
aF0.5834763041949887
aF0.30583201967590884
aF0.12619334343641184
aI00
aF0.4274279139266011
as.