(dp0
S'590f12d9-048b-4408-9515-9e0daa4f249b'
p1
(lp2
ccopy_reg
_reconstructor
p3
(cuuid
UUID
p4
c__builtin__
object
p5
Ntp6
Rp7
(dp8
S'int'
p9
L158410118090536061394505991447169125010L
sbaF51169.63251293228
aF321552.61376914044
aF129239.51668597055
aF40.19233903001591
aF21.677503459562136
aF13.290602122752674
aF93.85785714417118
aF57.5447923569394
aF66203.05641214001
aF435758.70655590325
aF0.15192595217520194
aF0.09263425208763484
aF0.18632498444730206
aF0.11952007699345689
aI01
aF0.19890722209887773
asS'37e3c252-8fd6-4717-8058-2072d6138c3f'
p10
(lp11
g3
(g4
g5
Ntp12
Rp13
(dp14
g9
L158410118328220548937299004227800976018L
sbaF8053.039438372223
aF72386.96611174567
aF57432.67152764236
aF79.34117785649701
aF21.677503459562136
aF13.290602122752674
aF93.85785714417118
aF57.5447923569394
aF60572.29867878682
aF77300.37839897342
aF0.7835964057789301
aF0.7710349628006358
aF0.18632498444730206
aF0.24225258944616979
aI00
aF0.8038723430323138
as.