(dp0
S'590f12d9-048b-4408-9515-9e0daa4f249b'
p1
(lp2
ccopy_reg
_reconstructor
p3
(cuuid
UUID
p4
c__builtin__
object
p5
Ntp6
Rp7
(dp8
S'int'
p9
L158410118328220548937299004227800976018L
sbaF8053.039438372223
aF576170.1024310609
aF57432.67152764236
aF9.96800619909191
aF7.226534383784703
aF9.999760499647287
aF56.064779525657606
aF77.57997650714668
aF65485.71096601458
aF576170.1024310609
aF0.11365690564246171
aF0.2689494686793712
aF0.08583044347646014
aF0.0191188475388886
aI00
aF0.11365690564246171
as.