(dp0
S'570efb1e-0db6-46fd-a057-b4a15fc82243'
p1
(lp2
ccopy_reg
_reconstructor
p3
(cuuid
UUID
p4
c__builtin__
object
p5
Ntp6
Rp7
(dp8
S'int'
p9
L106825455262054228145597065999300872850L
sbaF12569.659120594675
aF50946.96185094911
aF78905.90742546383
aF154.87853359403775
aF39.2521495786446
aF32.5374842927024
aF94.7640840584175
aF78.55327490753847
aF50926.67808662835
aF91495.85031037928
aF0.5566009596486721
aF0.9438259243333977
aF0.33002288092268056
aF0.22624435419713587
aI00
aF0.9586228605121344
asS'39f90a35-71f5-4d79-89fc-5b9916ef4860'
p10
(lp11
g3
(g4
g5
Ntp12
Rp13
(dp14
g9
L106825454945141578088539715625125071506L
sbaF6572.9058661978925
aF54806.2598394854
aF48241.13523216845
aF88.02121395157296
aF39.2521495786446
aF32.5374842927024
aF94.7640840584175
aF78.55327490753847
aF51993.82382773672
aF57626.47711011502
aF0.9022558107861566
aF0.8387641945421436
aF0.33002288092268056
aF0.6479280306332889
aI01
aF0.9024808611104163
asS'16d16958-d9ab-4fda-bbfb-5251b3d5bee3'
p15
(lp16
g3
(g4
g5
Ntp17
Rp18
(dp19
g9
L106825455341282390659861403592844823186L
sbaF10797.4488423854
aF14302.570678355463
aF5110.013217339501
aF35.72793543382133
aF39.2521495786446
aF32.5374842927024
aF94.7640840584175
aF78.55327490753847
aF13407.240799230929
aF16802.791938849423
aF0.7979174441976096
aF0.3663033937043655
aF0.33002288092268056
aF0.7968435280911808
aI00
aF0.9299891700443323
asS'97192e45-f7b1-4895-bc93-c4e13f278332'
p20
(lp21
g3
(g4
g5
Ntp22
Rp23
(dp24
g9
L106825455182826065631332728405756922514L
sbaF7851.183390593602
aF15724.370941650965
aF8796.61033824744
aF55.9425262281675
aF39.2521495786446
aF32.5374842927024
aF94.7640840584175
aF78.55327490753847
aF15714.242174376259
aF16657.922496115752
aF0.9433494589760795
aF0.5634741990499262
aF0.33002288092268056
aF0.933525237580467
aI00
aF0.9991042343423673
asS'2131d157-c89d-40c5-b2f1-c76b3e24c740'
p25
(lp26
g3
(g4
g5
Ntp27
Rp28
(dp29
g9
L106825454865913415574275378031581121170L
sbaF6740.815630146964
aF71593.01685147986
aF32873.22957090806
aF45.91681006976388
aF39.2521495786446
aF32.5374842927024
aF94.7640840584175
aF78.55327490753847
aF35753.17883712491
aF75453.88321540995
aF0.4738414686366074
aF0.4691598625497283
aF0.33002288092268056
aF0.06944073091004234
aI01
aF0.4738849290955212
as.