(dp0
S'1f8ee5be-d186-479b-979c-565adc45b383'
p1
(lp2
ccopy_reg
_reconstructor
p3
(cuuid
UUID
p4
c__builtin__
object
p5
Ntp6
Rp7
(dp8
S'int'
p9
L106825455262054228145597065999300872850L
sbaF12569.659120594675
aF40492.62621471459
aF78905.90742546383
aF194.8648798600034
aF28.471334845609935
aF20.873907922310725
aF76.7707669408152
aF56.28488895717676
aF34503.547669615684
aF97464.6450911574
aF0.3540109096723737
aF0.9092061100804036
aF0.26528777287214794
aF0.29187038696578094
aI00
aF0.5764141806292561
asS'8644c5c6-c56f-411f-b5a9-1a8973b6d7d7'
p10
(lp11
g3
(g4
g5
Ntp12
Rp13
(dp14
g9
L106825454945141578088539715625125071506L
sbaF6572.9058661978925
aF19516.273048767587
aF48241.13523216845
aF247.18415812088045
aF28.471334845609935
aF20.873907922310725
aF76.7707669408152
aF56.28488895717676
aF19516.2730470338
aF54814.041100100134
aF0.3560451419991756
aF0.932671120578043
aF0.26528777287214794
aF0.1999129182031265
aI01
aF0.8012345027673253
asS'aacfdfc2-d572-45f7-9b3e-bd3cbb442442'
p15
(lp16
g3
(g4
g5
Ntp17
Rp18
(dp19
g9
L106825455341282390659861403592844823186L
sbaF10797.4488423854
aF36836.52263288253
aF5110.013217339501
aF13.872137900383658
aF28.471334845609935
aF20.873907922310725
aF76.7707669408152
aF56.28488895717676
aF15377.817281585883
aF37366.16741102155
aF0.4115438736981634
aF0.15494778859289354
aF0.26528777287214794
aF0.3229192877606416
aI00
aF0.417438002290022
asS'16d16958-d9ab-4fda-bbfb-5251b3d5bee3'
p20
(lp21
g3
(g4
g5
Ntp22
Rp23
(dp24
g9
L106825455182826065631332728405756922514L
sbaF7851.183390593602
aF15974.299718682723
aF8796.61033824744
aF55.06726738048726
aF28.471334845609935
aF20.873907922310725
aF76.7707669408152
aF56.28488895717676
aF15973.446856278508
aF16648.64659124526
aF0.9594441667515601
aF0.5622405989287051
aF0.26528777287214794
aF0.9519877501069238
aI00
aF0.9925634995495243
asS'2131d157-c89d-40c5-b2f1-c76b3e24c740'
p25
(lp26
g3
(g4
g5
Ntp27
Rp28
(dp29
g9
L106825454865913415574275378031581121170L
sbaF6740.815630146964
aF79961.03180814632
aF32873.22957090806
aF41.11156250432349
aF28.471334845609935
aF20.873907922310725
aF76.7707669408152
aF56.28488895717676
aF35685.46420843952
aF83889.61280076185
aF0.42538596873957
aF0.5558091705914414
aF0.26528777287214794
aF0.07360167755897658
aI01
aF0.42539890150639
as.