(dp0
S'570efb1e-0db6-46fd-a057-b4a15fc82243'
p1
(lp2
ccopy_reg
_reconstructor
p3
(cuuid
UUID
p4
c__builtin__
object
p5
Ntp6
Rp7
(dp8
S'int'
p9
L106825455262054228145597065999300872850L
sbaF12569.659120594675
aF61000.91413237472
aF78905.90742546383
aF129.3520081588195
aF32.91169627869368
aF27.708532011613933
aF95.13682273908404
aF80.09619668420753
aF53892.42775738808
aF98584.05292104514
aF0.5466647612930858
aF0.8377908731512921
aF0.281179160083313
aF0.1586213562682083
aI00
aF0.8791049850761081
asS'39f90a35-71f5-4d79-89fc-5b9916ef4860'
p10
(lp11
g3
(g4
g5
Ntp12
Rp13
(dp14
g9
L106825454945141578088539715625125071506L
sbaF6572.9058661978925
aF65621.81195742456
aF48241.13523216845
aF73.51387258777204
aF32.91169627869368
aF27.708532011613933
aF95.13682273908404
aF80.09619668420753
aF53604.51171710218
aF66831.34133868873
aF0.8020864259695843
aF0.7259813434994886
aF0.281179160083313
aF0.32249003842080215
aI01
aF0.811099248238383
asS'16d16958-d9ab-4fda-bbfb-5251b3d5bee3'
p15
(lp16
g3
(g4
g5
Ntp17
Rp18
(dp19
g9
L106825455341282390659861403592844823186L
sbaF10797.4488423854
aF17125.06210625646
aF5110.013217339501
aF29.839385023150438
aF32.91169627869368
aF27.708532011613933
aF95.13682273908404
aF80.09619668420753
aF13400.719378613645
aF19631.804787367717
aF0.6826025178916038
aF0.25228154934802977
aF0.281179160083313
aF0.6443564973308145
aI00
aF0.7776363694951326
asS'97192e45-f7b1-4895-bc93-c4e13f278332'
p20
(lp21
g3
(g4
g5
Ntp22
Rp23
(dp24
g9
L106825455182826065631332728405756922514L
sbaF7851.183390593602
aF18827.44263344898
aF8796.61033824744
aF46.722279331869075
aF32.91169627869368
aF27.708532011613933
aF95.13682273908404
aF80.09619668420753
aF14666.537056328423
aF20808.699305961603
aF0.7048271898535495
aF0.4487354118164984
aF0.281179160083313
aF0.5404728700367146
aI00
aF0.7789978353338196
asS'2131d157-c89d-40c5-b2f1-c76b3e24c740'
p25
(lp26
g3
(g4
g5
Ntp27
Rp28
(dp29
g9
L106825454865913415574275378031581121170L
sbaF6740.815630146964
aF85721.2935721587
aF32873.22957090806
aF38.34896581820239
aF32.91169627869368
aF27.708532011613933
aF95.13682273908404
aF80.09619668420753
aF35479.70346502773
aF89855.63530818597
aF0.3948522910481885
aF0.4212856429139156
aF0.281179160083313
aF0.05328233749971181
aI01
aF0.39486967939741
as.