(dp0
S'bc63d18c-7a19-498a-927e-c4805b875e96'
p1
(lp2
ccopy_reg
_reconstructor
p3
(cuuid
UUID
p4
c__builtin__
object
p5
Ntp6
Rp7
(dp8
S'int'
p9
L232331570037465145493851293047680060050L
sbaF14998.583280800776
aF26311.204394435663
aF58072.25814454283
aF220.7130364462679
aF95.08759338218104
aF75.427463100774
aF93.71541790172165
aF74.33899601754322
aF25849.552207955225
aF73532.49361182407
aF0.351539175924242
aF0.6717229190017855
aF0.8804483416146355
aF0.5288220355359219
aI00
aF0.9526532413863289
as.