(dp0
S'bc63d18c-7a19-498a-927e-c4805b875e96'
p1
(lp2
ccopy_reg
_reconstructor
p3
(cuuid
UUID
p4
c__builtin__
object
p5
Ntp6
Rp7
(dp8
S'int'
p9
L232331570037465145493851293047680060050L
sbaF14998.583280800776
aF25519.54665326383
aF58072.25814454283
aF227.55991293095974
aF95.47397559635168
aF75.73596433193495
aF91.26503491529816
aF72.39716777188386
aF25473.38751872418
aF73117.00055988326
aF0.34839212937709774
aF0.6701624974728848
aF0.884713948272785
aF0.5564165984431482
aI00
aF0.9087415899368426
as.