(dp0
S'bc63d18c-7a19-498a-927e-c4805b875e96'
p1
(lp2
ccopy_reg
_reconstructor
p3
(cuuid
UUID
p4
c__builtin__
object
p5
Ntp6
Rp7
(dp8
S'int'
p9
L232331570037465145493851293047680060050L
sbaF14998.583280800776
aF27507.70473573221
aF58072.25814454283
aF211.1126998869796
aF89.5942226856243
aF71.10527838220034
aF92.31681699593877
aF73.26602960648398
aF24386.112295366576
aF76192.43386570924
aF0.3200595001118826
aF0.604994219122872
aF0.8474167782957337
aF0.4273749917261418
aI00
aF0.8842035710648735
as.