(dp0
S'd37731be-5870-4690-b481-81ff38e984cc'
p1
(lp2
ccopy_reg
_reconstructor
p3
(cuuid
UUID
p4
c__builtin__
object
p5
Ntp6
Rp7
(dp8
S'int'
p9
L122949184241226834349922931465436187282L
sbaF584.3848937290038
aF11570.983120049446
aF550.4286823114978
aF4.7569742052233295
aF82.92223056538857
aF35.19140518070843
aF52.344792053963715
aF22.21463139270453
aF409.8398524815097
aF12295.956843608437
aF0.03333126959489522
aF0.9242859148001787
aF0.7720178535223313
aF0.10649001386021616
aI00
aF0.03530116312631052
asS'3016889b-7775-44b0-bb6a-7221248ade09'
p10
(lp11
g3
(g4
g5
Ntp12
Rp13
(dp14
g9
L122949184161998671835658593871892236946L
sbaF3238.213877347109
aF8948.107994918746
aF10928.322443238323
aF122.12997931455519
aF82.92223056538857
aF35.19140518070843
aF52.344792053963715
aF22.21463139270453
aF5916.690103694472
aF17197.954211809705
aF0.3440345305508213
aF0.9179208644761188
aF0.7720178535223313
aF0.07591491509416912
aI01
aF0.41124714085115605
asS'cfcda8ed-96cc-4351-bade-b110808cb96d'
p15
(lp16
g3
(g4
g5
Ntp17
Rp18
(dp19
g9
L122949184082770509321394256278348286610L
sbaF5151.715635508963
aF8796.445147547205
aF3804.9912961010486
aF43.25601117585585
aF82.92223056538857
aF35.19140518070843
aF52.344792053963715
aF22.21463139270453
aF5559.503529428163
aF12193.648549729052
aF0.45593437491288835
aF0.6658656163435945
aF0.7720178535223313
aF0.3601039111057761
aI00
aF0.5337475100073106
asS'f126168f-b746-4e18-8412-6d8786f7d588'
p20
(lp21
g3
(g4
g5
Ntp22
Rp23
(dp24
g9
L122949184003542346807129918684804336274L
sbaF62379.98714779643
aF65565.18712029557
aF210537.456664745
aF321.11165377818855
aF82.92223056538857
aF35.19140518070843
aF52.344792053963715
aF22.21463139270453
aF58405.92120877425
aF280076.70972406276
aF0.20853544468698215
aF0.7462657454288887
aF0.7720178535223313
aF0.13968563969610556
aI00
aF0.2949052095417406
asS'5356b171-2c3d-4e37-9f6f-4cb83bd95f02'
p25
(lp26
g3
(g4
g5
Ntp27
Rp28
(dp29
g9
L122949183924314184292865581091260385938L
sbaF14266.948225850847
aF8882.313083191366
aF46293.166433520266
aF521.1836826729754
aF82.92223056538857
aF35.19140518070843
aF52.344792053963715
aF22.21463139270453
aF8602.72005338125
aF60839.707689181225
aF0.14139975979718625
aF0.7675380651998732
aF0.7720178535223313
aF0.12798718909019652
aI01
aF0.2224159646973283
as.