(dp0
S'd37731be-5870-4690-b481-81ff38e984cc'
p1
(lp2
ccopy_reg
_reconstructor
p3
(cuuid
UUID
p4
c__builtin__
object
p5
Ntp6
Rp7
(dp8
S'int'
p9
L122949183765857859264336905904172485266L
sbaF10497.044216595767
aF10110.383611453039
aF51803.63393533291
aF512.3804983685266
aF89.3215898340676
aF31.258001303555105
aF49.26702311303307
aF17.240945616287156
aF3160.7584481462163
aF69250.30331523549
aF0.045642521358470786
aF0.9171074936733498
aF0.7954529375847144
aF0.015142578664117834
aI01
aF0.04799726306101377
asS'752fc865-4d9e-4dfd-9dff-5dfbacd3bfcf'
p10
(lp11
g3
(g4
g5
Ntp12
Rp13
(dp14
g9
L122949183924314184292865581091260385938L
sbaF14266.948225850847
aF7944.290437950715
aF46293.166433520266
aF582.7224822039854
aF89.3215898340676
aF31.258001303555105
aF49.26702311303307
aF17.240945616287156
aF7944.290437950715
aF60560.114659371124
aF0.1311802410321462
aF1.0
aF0.7954529375847144
aF0.0
aI01
aF0.2282581736820977
asS'f126168f-b746-4e18-8412-6d8786f7d588'
p15
(lp16
g3
(g4
g5
Ntp17
Rp18
(dp19
g9
L122949184003542346807129918684804336274L
sbaF62379.98714779643
aF57288.92579527465
aF210537.456664745
aF367.5011422226924
aF89.3215898340676
aF31.258001303555105
aF49.26702311303307
aF17.240945616287156
aF53543.45597549765
aF276662.9136323184
aF0.19353318908025471
aF0.7431098633531608
aF0.7954529375847144
aF0.17018485778188938
aI00
aF0.3380890318568083
asS'4eea313a-4f46-4c62-925b-3f4b654abba0'
p20
(lp21
g3
(g4
g5
Ntp22
Rp23
(dp24
g9
L122949184082770509321394256278348286610L
sbaF5151.715635508963
aF6360.888995332039
aF3804.9912961010486
aF59.81854578649863
aF89.3215898340676
aF31.258001303555105
aF49.26702311303307
aF17.240945616287156
aF0.0
aF15317.59592694205
aF0.0
aF0.6957023677179616
aF0.7954529375847144
aF0.0
aI00
aF0.0
as.