(dp0
S'f126168f-b746-4e18-8412-6d8786f7d588'
p1
(lp2
ccopy_reg
_reconstructor
p3
(cuuid
UUID
p4
c__builtin__
object
p5
Ntp6
Rp7
(dp8
S'int'
p9
L122949184003542346807129918684804336274L
sbaF62379.98714779643
aF195777.28142922977
aF210537.456664745
aF107.53926866680432
aF49.80624320851803
aF23.877035493120424
aF93.88047461263211
aF45.00615344651097
aF112436.4956424734
aF356258.2295992978
aF0.3156039251891432
aF0.399034649654221
aF0.41319385908707096
aF0.2381908167903528
aI00
aF0.539250296768597
asS'f220b6ac-d220-4e6b-8124-f9d38f30dbb7'
p10
(lp11
g3
(g4
g5
Ntp12
Rp13
(dp14
g9
L122949184082770509321394256278348286610L
sbaF5151.715635508963
aF25813.271518171754
aF3804.9912961010486
aF14.740445795188926
aF49.80624320851803
aF23.877035493120424
aF93.88047461263211
aF45.00615344651097
aF5438.980323001566
aF29330.9981267802
aF0.18543454605575088
aF0.0519620307807349
aF0.41319385908707096
aF0.16492590621646827
aI00
aF0.2107048042776248
asS'd5c226b3-a3f2-4ea1-8a71-918132789d1a'
p15
(lp16
g3
(g4
g5
Ntp17
Rp18
(dp19
g9
L122949183924314184292865581091260385938L
sbaF14266.948225850847
aF37641.024411947015
aF46293.166433520266
aF122.98593663892716
aF49.80624320851803
aF23.877035493120424
aF93.88047461263211
aF45.00615344651097
aF36584.44846590339
aF61616.69060541474
aF0.5937425088306906
aF0.84462359958245
aF0.41319385908707096
aF0.3288218033225297
aI01
aF0.9030036417771666
asS'1ae1e58a-eb18-4c84-8156-a5f469869dee'
p20
(lp21
g3
(g4
g5
Ntp22
Rp23
(dp24
g9
L122949183765857859264336905904172485266L
sbaF10497.044216595767
aF25067.377191537256
aF51803.63393533291
aF206.65757545955708
aF49.80624320851803
aF23.877035493120424
aF93.88047461263211
aF45.00615344651097
aF21187.908882351567
aF66180.14646111437
aF0.32015506183264486
aF0.7364399683914548
aF0.41319385908707096
aF0.2074936852257447
aI01
aF0.8220630421730927
asS'af7918b6-3cb8-4d48-9267-c332374ed26a'
p25
(lp26
g3
(g4
g5
Ntp27
Rp28
(dp29
g9
L122949184241226834349922931465436187282L
sbaF584.3848937290038
aF24721.069111314133
aF550.4286823114978
aF2.226556949592371
aF49.80624320851803
aF23.877035493120424
aF93.88047461263211
aF45.00615344651097
aF1070.813961276705
aF24785.068726077927
aF0.04320399403008451
aF0.13196957301431086
aF0.41319385908707096
aF0.024206615669541073
aI00
aF0.04331584352015843
asS'5356b171-2c3d-4e37-9f6f-4cb83bd95f02'
p30
(lp31
g3
(g4
g5
Ntp32
Rp33
(dp34
g9
L122949184161998671835658593871892236946L
sbaF3238.213877347109
aF26522.53710555183
aF10928.322443238323
aF41.20391046960116
aF49.80624320851803
aF23.877035493120424
aF93.88047461263211
aF45.00615344651097
aF9716.55518002899
aF30972.518246108273
aF0.3137153751212943
aF0.28111249553688555
aF0.41319385908707096
aF0.11328762640472367
aI01
aF0.3663508940098748
as.