(dp0
S'18f178ba-f029-4b2f-9e0c-de8709d2b86c'
p1
(lp2
ccopy_reg
_reconstructor
p3
(cuuid
UUID
p4
c__builtin__
object
p5
Ntp6
Rp7
(dp8
S'int'
p9
L211518482520468571348218338643811420818L
sbaF6950.360890587894
aF28279.7780646591
aF85223.7283885258
aF301.3592546365449
aF86.99251592647414
aF63.22508390808811
aF85.74405284861434
aF62.31771639476602
aF24425.796659120806
aF96028.07068465196
aF0.2543610059534889
aF0.8651315516060745
aF0.869671808679588
aF0.018563313609268425
aI00
aF0.7875937017678102
as.