(dp0
S'18f178ba-f029-4b2f-9e0c-de8709d2b86c'
p1
(lp2
ccopy_reg
_reconstructor
p3
(cuuid
UUID
p4
c__builtin__
object
p5
Ntp6
Rp7
(dp8
S'int'
p9
L211518482520468571348218338643811420818L
sbaF6950.360890587894
aF27119.32490472962
aF85223.7283885258
aF314.2546087998774
aF90.87727278973493
aF64.97102854988665
aF85.89745149281303
aF61.41079724316339
aF24745.540951398958
aF94547.87323244425
aF0.2617249876214824
aF0.9100243202607577
aF0.9108342416509373
aF0.033373722869669116
aI00
aF0.8370903160980643
as.