(dp0
S'18f178ba-f029-4b2f-9e0c-de8709d2b86c'
p1
(lp2
ccopy_reg
_reconstructor
p3
(cuuid
UUID
p4
c__builtin__
object
p5
Ntp6
Rp7
(dp8
S'int'
p9
L211518482520468571348218338643811420818L
sbaF6950.360890587894
aF28026.373731555046
aF85223.7283885258
aF304.0840360041725
aF87.47735145596023
aF63.389582583333656
aF85.44932839960798
aF61.919996080405916
aF24805.733018310184
aF95394.72999235851
aF0.2600325303116558
aF0.8956034920192963
aF0.8789015100538994
aF0.019862837245612962
aI00
aF0.8216033911984795
as.