(dp0
S'a7b82e09-29d1-49c1-8aa0-1647c741baf2'
p1
(lp2
ccopy_reg
_reconstructor
p3
(cuuid
UUID
p4
c__builtin__
object
p5
Ntp6
Rp7
(dp8
S'int'
p9
L254696982481350263969658051938164329106L
sbaF1446.2335718417417
aF11722.990933960333
aF10466.69322778912
aF89.28347114445133
aF90.53667978158515
aF82.19116464835703
aF89.00524473282455
aF80.80089464348605
aF11217.144945755725
aF12418.77278783547
aF0.9032410156294369
aF0.8904159046610131
aF0.8923129378195684
aF0.6723020182983998
aI00
aF0.9032410156294369
as.