(dp0
S'a7b82e09-29d1-49c1-8aa0-1647c741baf2'
p1
(lp2
ccopy_reg
_reconstructor
p3
(cuuid
UUID
p4
c__builtin__
object
p5
Ntp6
Rp7
(dp8
S'int'
p9
L254696982481350263969658051938164329106L
sbaF1446.2335718417417
aF12169.055558883403
aF10466.69322778912
aF86.01072759626312
aF91.73934335407262
aF82.50107056110477
aF93.6192390911882
aF84.19165831969273
aF11397.605443204675
aF12684.376915309587
aF0.8985546171722613
aF0.8858612461350399
aF0.8924972599308838
aF0.638139078869944
aI00
aF0.9137148512535251
as.