(dp0
S'a7b82e09-29d1-49c1-8aa0-1647c741baf2'
p1
(lp2
ccopy_reg
_reconstructor
p3
(cuuid
UUID
p4
c__builtin__
object
p5
Ntp6
Rp7
(dp8
S'int'
p9
L254696982481350263969658051938164329106L
sbaF1446.2335718417417
aF12683.418143489846
aF10466.69322778912
aF82.52265366778491
aF86.84493856597214
aF78.24140252303229
aF92.37052851092056
aF83.21958448963598
aF10744.819860918611
aF13851.525082202097
aF0.7757138507964506
aF0.8153260878309314
aF0.8551235480036011
aF0.2714089311973948
aI00
aF0.8470255887337024
as.