(dp0
S'480c3c42-0e7e-483e-bd06-d5391c075842'
p1
(lp2
ccopy_reg
_reconstructor
p3
(cuuid
UUID
p4
c__builtin__
object
p5
Ntp6
Rp7
(dp8
S'int'
p9
L96379605736550412148451793343423105682L
sbaF10632.211952651727
aF89076.92392405594
aF39916.736884881146
aF44.811534936829254
aF29.681930193678184
aF24.179420928749103
aF95.27349205073477
aF77.61145763145798
aF38389.04789363824
aF101236.82486795058
aF0.37920043367333417
aF0.4301773712917935
aF0.27331628643157274
aF0.03264607682377901
aI01
aF0.43039629553178005
asS'55fba560-3c63-4000-a9b0-bd7b6224e4a6'
p10
(lp11
g3
(g4
g5
Ntp12
Rp13
(dp14
g9
L96379605657322249634187455749879155346L
sbaF6148.542083599234
aF32824.08948800461
aF60689.493744379804
aF184.89315222759936
aF29.681930193678184
aF24.179420928749103
aF95.27349205073477
aF77.61145763145798
aF31127.186441554317
aF68534.93887442937
aF0.45417982349974756
aF0.8683029878943157
aF0.27331628643157274
aF0.45638263264241985
aI01
aF0.8988873156777445
as.