(dp0
S'480c3c42-0e7e-483e-bd06-d5391c075842'
p1
(lp2
ccopy_reg
_reconstructor
p3
(cuuid
UUID
p4
c__builtin__
object
p5
Ntp6
Rp7
(dp8
S'int'
p9
L96379605736550412148451793343423105682L
sbaF10632.211952651727
aF91307.24588655015
aF39916.736884881146
aF43.71694326918802
aF29.174654338159446
aF23.87444662627922
aF95.98993455830951
aF78.5512843686008
aF37663.014234974224
aF104193.18048910881
aF0.3614729299765554
aF0.41637541697452896
aF0.2673787501894465
aF0.025609752272163788
aI01
aF0.4119301870318477
asS'55fba560-3c63-4000-a9b0-bd7b6224e4a6'
p10
(lp11
g3
(g4
g5
Ntp12
Rp13
(dp14
g9
L96379605657322249634187455749879155346L
sbaF6148.542083599234
aF33645.94417784982
aF60689.493744379804
aF180.37684846524115
aF29.174654338159446
aF23.87444662627922
aF95.98993455830951
aF78.5512843686008
aF31514.728893568874
aF68969.25111226001
aF0.4569388297731828
aF0.8452663048037441
aF0.2673787501894465
aF0.4105562974969659
aI01
aF0.9320620922459529
as.