(dp0
S'480c3c42-0e7e-483e-bd06-d5391c075842'
p1
(lp2
ccopy_reg
_reconstructor
p3
(cuuid
UUID
p4
c__builtin__
object
p5
Ntp6
Rp7
(dp8
S'int'
p9
L96379605736550412148451793343423105682L
sbaF10632.211952651727
aF83573.24407727699
aF39916.736884881146
aF47.762579190980865
aF31.33195536845681
aF25.241134079010337
aF94.35599373776643
aF76.0135223316107
aF37679.255498630286
aF96442.93741617957
aF0.3906896296203966
aF0.4460658508428202
aF0.2882585809442168
aF0.03356808664681743
aI01
aF0.44563942592231137
asS'55fba560-3c63-4000-a9b0-bd7b6224e4a6'
p10
(lp11
g3
(g4
g5
Ntp12
Rp13
(dp14
g9
L96379605657322249634187455749879155346L
sbaF6148.542083599234
aF30796.030234880636
aF60689.493744379804
aF197.0692108089984
aF31.33195536845681
aF25.241134079010337
aF94.35599373776643
aF76.0135223316107
aF28879.52341176181
aF68754.54265109789
aF0.4200380410980838
aF0.872217042619044
aF0.2882585809442168
aF0.4593155454938854
aI01
aF0.8610233414594558
as.