(dp0
S'c2eddf15-d5d9-4218-a80f-73fa5e29d9ea'
p1
(lp2
ccopy_reg
_reconstructor
p3
(cuuid
UUID
p4
c__builtin__
object
p5
Ntp6
Rp7
(dp8
S'int'
p9
L294248971035124123134618355332702718610L
sbaF13345.631960663362
aF145650.59008114034
aF63922.75067961951
aF43.88773889896969
aF31.546467710179886
aF31.29302559417188
aF94.74818067985984
aF93.98698042060977
aF73908.54229912294
aF149010.43042230018
aF0.4959957641197589
aF0.47997251232922633
aF0.20163259201522535
aF0.15281433136334396
aI00
aF0.5067460775060845
asS'65127aaa-525f-40ec-855f-cd816c7dae9e'
p10
(lp11
g3
(g4
g5
Ntp12
Rp13
(dp14
g9
L294248971193580448163147030519790619282L
sbaF11842.549492015722
aF70114.37714764648
aF57315.5727940567
aF81.7458203662879
aF31.546467710179886
aF31.29302559417188
aF94.74818067985984
aF93.98698042060977
aF65040.79328542786
aF74231.70614829104
aF0.8761861562968432
aF0.774618271699076
aF0.20163259201522535
aF0.6440231786308741
aI00
aF0.9177455743547117
asS'f24dd147-92e7-4e5a-bdc3-792421d81442'
p15
(lp16
g3
(g4
g5
Ntp17
Rp18
(dp19
g9
L294248971352036773191675705706878519954L
sbaF21471.517735268346
aF138582.12268625785
aF7713.248225017697
aF5.565832068022265
aF31.546467710179886
aF31.29302559417188
aF94.74818067985984
aF93.98698042060977
aF14922.303740241252
aF152844.58490630265
aF0.09763056865500977
aF0.02053977163451794
aF0.20163259201522535
aF0.1018327132032026
aI00
aF0.10766545111549873
asS'104d40b1-bfca-440e-a184-35e548e21935'
p20
(lp21
g3
(g4
g5
Ntp22
Rp23
(dp24
g9
L294248971114352285648882692926246668946L
sbaF132143.67202257956
aF141595.86014825775
aF13895.664845307672
aF9.81360954392186
aF31.546467710179886
aF31.29302559417188
aF94.74818067985984
aF93.98698042060977
aF141595.86014825775
aF146039.33686788724
aF0.9695734257979464
aF0.09742573754101115
aF0.20163259201522535
aF0.9671350665866347
aI00
aF0.9786533375431514
asS'47b23439-8958-4211-9e48-2366e1abcdb9'
p25
(lp26
g3
(g4
g5
Ntp27
Rp28
(dp29
g9
L294248971431264935705940043300422470290L
sbaF2141.1238142318325
aF26093.889976153558
aF21344.183166551968
aF81.79762843354438
aF31.546467710179886
aF31.29302559417188
aF94.74818067985984
aF93.98698042060977
aF23407.38279566527
aF26171.814161272097
aF0.8943737201948534
aF0.8636600910934279
aF0.20163259201522535
aF0.5677449670797686
aI00
aF0.8970445884862928
as.