(dp0
S'01d791dd-72d6-491d-bc94-d260dfcd85d8'
p1
(lp2
ccopy_reg
_reconstructor
p3
(cuuid
UUID
p4
c__builtin__
object
p5
Ntp6
Rp7
(dp8
S'int'
p9
L294248971352036773191675705706878519954L
sbaF21471.517735268346
aF51587.47048218423
aF7713.248225017697
aF14.951786069219022
aF56.935877288653316
aF31.836886886776337
aF71.43569568543725
aF39.94476368011779
aF2272.7603800318348
aF78499.47606243844
aF0.02895255476895263
aF0.8449046605682822
aF0.46011556881887433
aF0.0835581852913416
aI00
aF0.029795738072748077
asS'3386f43d-35e1-4c0b-8bb5-6aeba3f50db1'
p10
(lp11
g3
(g4
g5
Ntp12
Rp13
(dp14
g9
L294248971431264935705940043300422470290L
sbaF2141.1238142318325
aF56291.821512873445
aF21344.183166551968
aF37.91702345547788
aF56.935877288653316
aF31.836886886776337
aF71.43569568543725
aF39.94476368011779
aF15458.363989771704
aF64318.76450388554
aF0.24033987762370426
aF0.9424805404178933
aF0.46011556881887433
aF0.11609949579806739
aI00
aF0.2508975511105422
asS'f24dd147-92e7-4e5a-bdc3-792421d81442'
p15
(lp16
g3
(g4
g5
Ntp17
Rp18
(dp19
g9
L294248971193580448163147030519790619282L
sbaF11842.549492015722
aF57891.703518174894
aF57315.5727940567
aF99.00481297127952
aF56.935877288653316
aF31.836886886776337
aF71.43569568543725
aF39.94476368011779
aF36098.52040053169
aF90951.30540371563
aF0.3968994204129033
aF0.7246927877092869
aF0.46011556881887433
aF0.4557598524590093
aI00
aF0.6233582202497573
asS'6636b45a-1997-4efd-968c-57c9581978cf'
p20
(lp21
g3
(g4
g5
Ntp22
Rp23
(dp24
g9
L294248971114352285648882692926246668946L
sbaF132143.67202257956
aF49703.04570412781
aF13895.664845307672
aF27.957370918526316
aF56.935877288653316
aF31.836886886776337
aF71.43569568543725
aF39.94476368011779
aF41243.83487563527
aF154498.5476963797
aF0.26695289690805113
aF0.0
aF0.46011556881887433
aF0.293335627544146
aI00
aF0.6202527700514325
as.