(dp0
S'c2eddf15-d5d9-4218-a80f-73fa5e29d9ea'
p1
(lp2
ccopy_reg
_reconstructor
p3
(cuuid
UUID
p4
c__builtin__
object
p5
Ntp6
Rp7
(dp8
S'int'
p9
L294248971035124123134618355332702718610L
sbaF13345.631960663362
aF145044.58896142722
aF63922.75067961951
aF44.0711033326579
aF31.878512834366145
aF31.431689563429178
aF95.34709765298246
aF94.0106707541177
aF74109.81940967805
aF148203.15219203202
aF0.5000556217161384
aF0.4888001013622277
aF0.20290347568716255
aF0.15683024929314573
aI00
aF0.5102706360000626
asS'65127aaa-525f-40ec-855f-cd816c7dae9e'
p10
(lp11
g3
(g4
g5
Ntp12
Rp13
(dp14
g9
L294248971193580448163147030519790619282L
sbaF11842.549492015722
aF69822.65576817395
aF57315.5727940567
aF82.08735712425002
aF31.878512834366145
aF31.431689563429178
aF95.34709765298246
aF94.0106707541177
aF65394.87533397681
aF73585.90272026959
aF0.8886875463438934
aF0.7849167821337484
aF0.20290347568716255
aF0.6670730551323345
aI00
aF0.9265185746115618
asS'f24dd147-92e7-4e5a-bdc3-792421d81442'
p15
(lp16
g3
(g4
g5
Ntp17
Rp18
(dp19
g9
L294248971352036773191675705706878519954L
sbaF21471.517735268346
aF138005.53098502752
aF7713.248225017697
aF5.5890862996313695
aF31.878512834366145
aF31.431689563429178
aF95.34709765298246
aF94.0106707541177
aF14482.87213596796
aF152707.42480934566
aF0.09484065463123187
aF0.016932250394873272
aF0.20290347568716255
aF0.09960228470498662
aI00
aF0.10493221280071305
asS'104d40b1-bfca-440e-a184-35e548e21935'
p20
(lp21
g3
(g4
g5
Ntp22
Rp23
(dp24
g9
L294248971114352285648882692926246668946L
sbaF132143.67202257956
aF141006.7293404198
aF13895.664845307672
aF9.854611131189792
aF31.878512834366145
aF31.431689563429178
aF95.34709765298246
aF94.0106707541177
aF140954.15403100825
aF146091.91217729877
aF0.9648320152038582
aF0.09707086233179392
aF0.20290347568716255
aF0.9627089405929725
aI00
aF0.9996271432600593
asS'47b23439-8958-4211-9e48-2366e1abcdb9'
p25
(lp26
g3
(g4
g5
Ntp27
Rp28
(dp29
g9
L294248971431264935705940043300422470290L
sbaF2141.1238142318325
aF25985.32243424101
aF21344.183166551968
aF82.13938164733571
aF31.878512834366145
aF31.431689563429178
aF95.34709765298246
aF94.0106707541177
aF22660.212375942894
aF26810.41703908192
aF0.8452017864142428
aF0.8519297744258527
aF0.20290347568716255
aF0.4119527633084753
aI00
aF0.8720389147868877
as.