(dp0
S'c2eddf15-d5d9-4218-a80f-73fa5e29d9ea'
p1
(lp2
ccopy_reg
_reconstructor
p3
(cuuid
UUID
p4
c__builtin__
object
p5
Ntp6
Rp7
(dp8
S'int'
p9
L158846493420625002556664834175152343698L
sbaF3840.363030334044
aF64595.300842128134
aF38353.336107487055
aF59.374808395463894
aF47.12338089884695
aF45.95270721431608
aF97.26175181921276
aF94.84550385070357
aF40800.44434279408
aF65988.5556371552
aF0.618295762785588
aF0.6643424733169766
aF0.3308483784927727
aF0.10879662059836842
aI01
aF0.630843067719278
asS'104d40b1-bfca-440e-a184-35e548e21935'
p10
(lp11
g3
(g4
g5
Ntp12
Rp13
(dp14
g9
L158846493895993977642250859736416045714L
sbaF56079.98300016531
aF62797.048602283285
aF2890.511555402461
aF4.602941730126728
aF47.12338089884695
aF45.95270721431608
aF97.26175181921276
aF94.84550385070357
aF58129.623358993864
aF63637.919798857205
aF0.9134431726041073
aF0.08667420778449579
aF0.3308483784927727
aF0.9065580771775629
aI00
aF0.9256744489243445
asS'f24dd147-92e7-4e5a-bdc3-792421d81442'
p15
(lp16
g3
(g4
g5
Ntp17
Rp18
(dp19
g9
L158846493499853165070929171768696294034L
sbaF29731.88767874503
aF61460.471263951724
aF4809.994185222027
aF7.826158970641058
aF47.12338089884695
aF45.95270721431608
aF97.26175181921276
aF94.84550385070357
aF34537.232344420285
aF61465.1207834985
aF0.5618996904939374
aF0.12533518714378297
aF0.3308483784927727
aF0.5147579912840425
aI00
aF0.5619248076912382
as.