(dp0
S'c2eddf15-d5d9-4218-a80f-73fa5e29d9ea'
p1
(lp2
ccopy_reg
_reconstructor
p3
(cuuid
UUID
p4
c__builtin__
object
p5
Ntp6
Rp7
(dp8
S'int'
p9
L158846493420625002556664834175152343698L
sbaF3840.363030334044
aF63004.66325394773
aF38353.336107487055
aF60.87380540849716
aF46.97498989247068
aF44.89904165889817
aF94.56797961220188
aF90.38877210885043
aF38834.44713566615
aF66363.91525610269
aF0.5851741414864009
aF0.6945618013066971
aF0.3400890892223252
aF0.08796913753156188
aI01
aF0.616124841279558
asS'104d40b1-bfca-440e-a184-35e548e21935'
p10
(lp11
g3
(g4
g5
Ntp12
Rp13
(dp14
g9
L158846493895993977642250859736416045714L
sbaF56079.98300016531
aF61250.69237154588
aF2890.511555402461
aF4.719149194050994
aF46.97498989247068
aF44.89904165889817
aF94.56797961220188
aF90.38877210885043
aF57512.63835304671
aF62708.54857406694
aF0.9171419154298686
aF0.0972028612437012
aF0.3400890892223252
aF0.9160819425421328
aI00
aF0.938971236507431
asS'f24dd147-92e7-4e5a-bdc3-792421d81442'
p15
(lp16
g3
(g4
g5
Ntp17
Rp18
(dp19
g9
L158846493499853165070929171768696294034L
sbaF29731.88767874503
aF59947.02780126623
aF4809.994185222027
aF8.02374089532497
aF46.97498989247068
aF44.89904165889817
aF94.56797961220188
aF90.38877210885043
aF30270.206195138853
aF64218.70347009442
aF0.4713612165844361
aF0.14427646530299912
aF0.3400890892223252
aF0.4572311417982838
aI00
aF0.5047610755949707
as.