(dp0
S'c2eddf15-d5d9-4218-a80f-73fa5e29d9ea'
p1
(lp2
ccopy_reg
_reconstructor
p3
(cuuid
UUID
p4
c__builtin__
object
p5
Ntp6
Rp7
(dp8
S'int'
p9
L158846493420625002556664834175152343698L
sbaF3840.363030334044
aF63915.58543046989
aF38353.336107487055
aF60.00623455011526
aF47.379106082138
aF46.17870174152624
aF96.7605557996949
aF94.30901543123385
aF40245.9940294214
aF65863.29053886961
aF0.6110534973297453
aF0.6660625281445222
aF0.3318341158704452
aF0.08993369521646273
aI01
aF0.62874505369358
asS'104d40b1-bfca-440e-a184-35e548e21935'
p10
(lp11
g3
(g4
g5
Ntp12
Rp13
(dp14
g9
L158846493895993977642250859736416045714L
sbaF56079.98300016531
aF62136.255616026574
aF2890.511555402461
aF4.651892082562056
aF47.379106082138
aF46.17870174152624
aF96.7605557996949
aF94.30901543123385
aF58734.88789559776
aF62371.86227599659
aF0.9416888602058224
aF0.08870140322258299
aF0.3318341158704452
aF0.936222600353238
aI00
aF0.9452595318673901
asS'f24dd147-92e7-4e5a-bdc3-792421d81442'
p15
(lp16
g3
(g4
g5
Ntp17
Rp18
(dp19
g9
L158846493499853165070929171768696294034L
sbaF29731.88767874503
aF60813.74264776363
aF4809.994185222027
aF7.909386884937774
aF47.379106082138
aF46.17870174152624
aF96.7605557996949
aF94.30901543123385
aF33560.33926940027
aF61795.285242330414
aF0.5430889935663099
aF0.12330724626962358
aF0.3318341158704452
aF0.4916983796320969
aI00
aF0.5430889935663099
as.