(dp0
S'55fba560-3c63-4000-a9b0-bd7b6224e4a6'
p1
(lp2
ccopy_reg
_reconstructor
p3
(cuuid
UUID
p4
c__builtin__
object
p5
Ntp6
Rp7
(dp8
S'int'
p9
L32655619062499991084212175115318643346L
sbaF3688.514444057264
aF9692.98632117905
aF13902.442967206991
aF143.4278612034181
aF84.81585570089054
aF79.32017488583206
aF86.53062684857402
aF80.92383667995581
aF8814.995254299447
aF18468.94847814386
aF0.4772873379733073
aF0.8778528651706965
aF0.8637578511273986
aF0.17225855577118054
aI00
aF0.8885177712090305
as.