(dp0
S'55fba560-3c63-4000-a9b0-bd7b6224e4a6'
p1
(lp2
ccopy_reg
_reconstructor
p3
(cuuid
UUID
p4
c__builtin__
object
p5
Ntp6
Rp7
(dp8
S'int'
p9
L32655619062499991084212175115318643346L
sbaF3688.514444057264
aF9686.705343724314
aF13902.442967206991
aF143.52086157151368
aF85.08414832862478
aF79.63285028895095
aF86.74809518428583
aF81.19018891722102
aF8437.26776909766
aF18840.39498589091
aF0.4478286031378914
aF0.8570944284122091
aF0.8593119160855975
aF0.13862929623293493
aI00
aF0.8397519624400744
as.