(dp0
S'55fba560-3c63-4000-a9b0-bd7b6224e4a6'
p1
(lp2
ccopy_reg
_reconstructor
p3
(cuuid
UUID
p4
c__builtin__
object
p5
Ntp6
Rp7
(dp8
S'int'
p9
L32655619062499991084212175115318643346L
sbaF3688.514444057264
aF9939.967426239928
aF13902.442967206991
aF139.86406968001486
aF82.9972631048444
aF77.49035312335579
aF86.83282582597262
aF81.0714243366505
aF8926.814581572846
aF18604.110255931344
aF0.479830234220785
aF0.8732661249871538
aF0.8315562230371815
aF0.1990817140031764
aI00
aF0.8852720421631325
as.