(dp0
S'919b6985-f1b0-4b60-855a-750ffeb7273b'
p1
(lp2
ccopy_reg
_reconstructor
p3
(cuuid
UUID
p4
c__builtin__
object
p5
Ntp6
Rp7
(dp8
S'int'
p9
L35504516026018861780757154710126774930L
sbaF2934.117036843919
aF45580.59340856242
aF7714.9050787147
aF16.925854846956508
aF67.94248244096947
aF51.58308603441634
aF90.34810887416523
aF68.59381797172348
aF10110.987333168663
aF46118.62819095238
aF0.2192386835814915
aF0.6322296602282449
aF0.5746125122787361
aF0.14817821207922402
aI01
aF0.2218265840143558
asS'61134256-8252-41ee-9035-1436fdd5b61e'
p10
(lp11
g3
(g4
g5
Ntp12
Rp13
(dp14
g9
L35504515788334374237964141929494923922L
sbaF5165.743203177917
aF87492.35679190962
aF78253.82690569402
aF89.44075777020343
aF67.94248244096947
aF51.58308603441634
aF90.34810887416523
aF68.59381797172348
aF79845.23854005673
aF91066.68836072482
aF0.8767776667553921
aF0.8776681220577692
aF0.5746125122787361
aF0.41883718056862396
aI00
aF0.9085008809420323
asS'fe6efacb-233c-435d-aeb8-bafee63e54bf'
p15
(lp16
g3
(g4
g5
Ntp17
Rp18
(dp19
g9
L35504516184475186809285829897214675602L
sbaF25001.068269574967
aF18548.022213076983
aF514.8447150206888
aF2.775739154860974
aF67.94248244096947
aF51.58308603441634
aF90.34810887416523
aF68.59381797172348
aF17841.347633592603
aF26222.587564080044
aF0.6803808964311308
aF0.034611460071005525
aF0.5746125122787361
aF0.6798725093098678
aI01
aF0.9619002731738077
as.