(dp0
S'919b6985-f1b0-4b60-855a-750ffeb7273b'
p1
(lp2
ccopy_reg
_reconstructor
p3
(cuuid
UUID
p4
c__builtin__
object
p5
Ntp6
Rp7
(dp8
S'int'
p9
L35504516026018861780757154710126774930L
sbaF2934.117036843919
aF46743.85704515771
aF7714.9050787147
aF16.504639467944596
aF62.18443534485657
aF50.59029635039744
aF84.80157552634688
aF68.99052492905442
aF9513.996434103308
aF47878.88272661301
aF0.19870965846107863
aF0.6157491886319894
aF0.5504533527244954
aF0.11282545783092014
aI01
aF0.20353249653263802
asS'61134256-8252-41ee-9035-1436fdd5b61e'
p10
(lp11
g3
(g4
g5
Ntp12
Rp13
(dp14
g9
L35504515788334374237964141929494923922L
sbaF5165.743203177917
aF89725.25174840502
aF78253.82690569402
aF87.21494270656652
aF62.18443534485657
aF50.59029635039744
aF84.80157552634688
aF68.99052492905442
aF80131.57321128264
aF93013.24864599436
aF0.86150709041742
aF0.8707817478847807
aF0.5504533527244954
aF0.41633001880655773
aI00
aF0.8868198768742529
asS'fe6efacb-233c-435d-aeb8-bafee63e54bf'
p15
(lp16
g3
(g4
g5
Ntp17
Rp18
(dp19
g9
L35504516184475186809285829897214675602L
sbaF25001.068269574967
aF19021.386821954184
aF514.8447150206888
aF2.706662347176827
aF62.18443534485657
aF50.59029635039744
aF84.80157552634688
aF68.99052492905442
aF18138.287200860173
aF26399.01260568966
aF0.6870820311268351
aF0.04508555721153733
aF0.5504533527244954
aF0.6880694972735886
aI01
aF0.8523818895352058
as.