(dp0
S'919b6985-f1b0-4b60-855a-750ffeb7273b'
p1
(lp2
ccopy_reg
_reconstructor
p3
(cuuid
UUID
p4
c__builtin__
object
p5
Ntp6
Rp7
(dp8
S'int'
p9
L35504516026018861780757154710126774930L
sbaF2934.117036843919
aF42858.00841915545
aF7714.9050787147
aF18.001081625777346
aF69.68759821031027
aF51.626711240349806
aF87.13350083874961
aF64.55117126561214
aF10152.982625522049
aF43354.04790919202
aF0.23418765063848607
aF0.6618498683437831
aF0.5964560542369336
aF0.17538279846775598
aI01
aF0.2368957471749603
asS'61134256-8252-41ee-9035-1436fdd5b61e'
p10
(lp11
g3
(g4
g5
Ntp12
Rp13
(dp14
g9
L35504515788334374237964141929494923922L
sbaF5165.743203177917
aF82266.33054968115
aF78253.82690569402
aF95.12254452437993
aF69.68759821031027
aF51.626711240349806
aF87.13350083874961
aF64.55117126561214
aF77301.28884473412
aF88384.61181381898
aF0.8746012146047354
aF0.895627958399837
aF0.5964560542369336
aF0.4396076344772519
aI00
aF0.9303004144587517
asS'fe6efacb-233c-435d-aeb8-bafee63e54bf'
p15
(lp16
g3
(g4
g5
Ntp17
Rp18
(dp19
g9
L35504516184475186809285829897214675602L
sbaF25001.068269574967
aF17440.12599926806
aF514.8447150206888
aF2.9520699279483194
aF69.68759821031027
aF51.626711240349806
aF87.13350083874961
aF64.55117126561214
aF15601.424808836306
aF27354.614175027415
aF0.5703397865168636
aF0.06411704849244831
aF0.5964560542369336
aF0.5947481616986723
aI01
aF0.8898384896526087
as.