(dp0
S'2a0cfb21-2c7b-45a4-b8ce-0959b8ba7af2'
p1
(lp2
ccopy_reg
_reconstructor
p3
(cuuid
UUID
p4
c__builtin__
object
p5
Ntp6
Rp7
(dp8
S'int'
p9
L268141315700635040508330720031161633426L
sbaF12613.286236630898
aF31947.542365645993
aF21025.191072847178
aF65.81160714088638
aF61.94359523033809
aF57.49061453405619
aF90.74135434969774
aF84.21816986595667
aF29810.938585921496
aF35775.08108920258
aF0.833287799169206
aF0.6454191088838948
aF0.5281189987570815
aF0.6364591927129776
aI00
aF0.9039408031885564
asS'd8055e97-78db-408a-afd0-95b9e415ca98'
p10
(lp11
g3
(g4
g5
Ntp12
Rp13
(dp14
g9
L268141316572144828165238433560145087122L
sbaF5692.7717783811495
aF5969.211100839044
aF1582.312224628043
aF26.507895229331563
aF61.94359523033809
aF57.49061453405619
aF90.74135434969774
aF84.21816986595667
aF4131.058948505999
aF9113.236155342236
aF0.45330318210664894
aF0.044845678777010366
aF0.5281189987570815
aF0.5600980324569194
aI00
aF0.674954098299583
asS'd3c47541-2039-49d0-8472-4c0c55b619b5'
p15
(lp16
g3
(g4
g5
Ntp17
Rp18
(dp19
g9
L268141315621406877994066382437617683090L
sbaF13553.929982737425
aF23914.463157281767
aF19055.624007130533
aF79.68242432123442
aF61.94359523033809
aF57.49061453405619
aF90.74135434969774
aF84.21816986595667
aF19664.733651033905
aF36859.283496115815
aF0.5335082992892727
aF0.8742986897683234
aF0.5281189987570815
aF0.05520821909645305
aI00
aF0.7915221663224424
as.