(dp0
S'2a0cfb21-2c7b-45a4-b8ce-0959b8ba7af2'
p1
(lp2
ccopy_reg
_reconstructor
p3
(cuuid
UUID
p4
c__builtin__
object
p5
Ntp6
Rp7
(dp8
S'int'
p9
L268141315700635040508330720031161633426L
sbaF12613.286236630898
aF33669.49144886032
aF21025.191072847178
aF62.44582311194624
aF60.90984074942892
aF56.659372578812814
aF94.03627441948437
aF87.47414609365902
aF30692.083482283055
aF36615.885276055335
aF0.8382177093599836
aF0.6098350823810976
aF0.5121766647026231
aF0.6516224523695129
aI00
aF0.909921320971884
asS'd8055e97-78db-408a-afd0-95b9e415ca98'
p10
(lp11
g3
(g4
g5
Ntp12
Rp13
(dp14
g9
L268141316572144828165238433560145087122L
sbaF5692.7717783811495
aF6290.947197624229
aF1582.312224628043
aF25.152209594536124
aF60.90984074942892
aF56.659372578812814
aF94.03627441948437
aF87.47414609365902
aF4231.518658694967
aF9334.512541938459
aF0.45331972501868056
aF0.08001852557612556
aF0.5121766647026231
aF0.5504593572685821
aI00
aF0.6679744177738203
asS'd3c47541-2039-49d0-8472-4c0c55b619b5'
p15
(lp16
g3
(g4
g5
Ntp17
Rp18
(dp19
g9
L268141315621406877994066382437617683090L
sbaF13553.929982737425
aF25203.435167645974
aF19055.624007130533
aF75.6072490927448
aF60.90984074942892
aF56.659372578812814
aF94.03627441948437
aF87.47414609365902
aF19607.383187796848
aF38205.605969717086
aF0.5132069676721853
aF0.8334041051208089
aF0.5121766647026231
aF0.054350688700041186
aI00
aF0.7744809959231665
as.