(dp0
S'2a0cfb21-2c7b-45a4-b8ce-0959b8ba7af2'
p1
(lp2
ccopy_reg
_reconstructor
p3
(cuuid
UUID
p4
c__builtin__
object
p5
Ntp6
Rp7
(dp8
S'int'
p9
L268141315700635040508330720031161633426L
sbaF12613.286236630898
aF31464.370942392536
aF21025.191072847178
aF66.82221968251571
aF63.79607267279761
aF59.398486806707204
aF92.0416491351739
aF85.69704141293269
aF30427.32109996551
aF34675.52715190511
aF0.8774869078895546
aF0.6583311583554883
aF0.5354421714872891
aF0.7143512064815546
aI00
aF0.9405303883945385
asS'd8055e97-78db-408a-afd0-95b9e415ca98'
p10
(lp11
g3
(g4
g5
Ntp12
Rp13
(dp14
g9
L268141316572144828165238433560145087122L
sbaF5692.7717783811495
aF5878.933351449659
aF1582.312224628043
aF26.914954295882055
aF63.79607267279761
aF59.398486806707204
aF92.0416491351739
aF85.69704141293269
aF4021.4392834458636
aF9132.578071012991
aF0.44033998419460574
aF0.0677841572147557
aF0.5354421714872891
aF0.5381804130209195
aI00
aF0.6692237599843267
asS'd3c47541-2039-49d0-8472-4c0c55b619b5'
p15
(lp16
g3
(g4
g5
Ntp17
Rp18
(dp19
g9
L268141315621406877994066382437617683090L
sbaF13553.929982737425
aF23552.78321746669
aF19055.624007130533
aF80.90603913425792
aF63.79607267279761
aF59.398486806707204
aF92.0416491351739
aF85.69704141293269
aF19608.295027747
aF36554.04217958765
aF0.5364193358264653
aF0.8737445029948047
aF0.5354421714872891
aF0.06035325186179438
aI00
aF0.7977096387408376
as.