(dp0
S'a7b82e09-29d1-49c1-8aa0-1647c741baf2'
p1
(lp2
ccopy_reg
_reconstructor
p3
(cuuid
UUID
p4
c__builtin__
object
p5
Ntp6
Rp7
(dp8
S'int'
p9
L104341210194788140281053319724522195602L
sbaF2805.0138913274805
aF17233.426351680726
aF16003.414188661753
aF92.86263719170962
aF72.74241312564727
aF72.3603803747207
aF89.81608409512778
aF89.34438286595564
aF15981.613581612215
aF20060.24085005774
aF0.7966810419211001
aF0.898921751558528
aF0.6794978303204998
aF0.4573841720635231
aI00
aF0.8078424224942712
asS'37e3c252-8fd6-4717-8058-2072d6138c3f'
p10
(lp11
g3
(g4
g5
Ntp12
Rp13
(dp14
g9
L104341210115559977766788982130978245266L
sbaF2015.888661752204
aF16548.005985420685
aF15169.616022474609
aF91.67035614949329
aF72.74241312564727
aF72.3603803747207
aF89.81608409512778
aF89.34438286595564
aF15055.463020583766
aF18678.04764906373
aF0.8060512160294466
aF0.8960346861930362
aF0.6794978303204998
aF0.5318115576316766
aI00
aF0.838803885512486
asS'cb45cd08-acb1-45ad-bb4e-c7ee5ca7d632'
p15
(lp16
g3
(g4
g5
Ntp17
Rp18
(dp19
g9
L104341210590928952852375007692241947282L
sbaF16036.199825739835
aF16244.407978018997
aF2593.953745786255
aF15.968287359540861
aF72.74241312564727
aF72.3603803747207
aF89.81608409512778
aF89.34438286595564
aF16244.407978018997
aF18630.15357152609
aF0.8719417108212455
aF0.27601895285337835
aF0.6794978303204998
aF0.8371092609804178
aI00
aF0.8998831927873037
as.