(dp0
S'a7b82e09-29d1-49c1-8aa0-1647c741baf2'
p1
(lp2
ccopy_reg
_reconstructor
p3
(cuuid
UUID
p4
c__builtin__
object
p5
Ntp6
Rp7
(dp8
S'int'
p9
L104341210194788140281053319724522195602L
sbaF2805.0138913274805
aF17951.79902130661
aF16003.414188661753
aF89.1465761713778
aF72.50973184816675
aF71.97283235550103
aF93.26078274996516
aF92.5702317622865
aF16068.865797281669
aF20691.361304014175
aF0.7765978062624749
aF0.8108086817196674
aF0.6663388541310723
aF0.3316822896717233
aI00
aF0.8845132419012794
asS'37e3c252-8fd6-4717-8058-2072d6138c3f'
p10
(lp11
g3
(g4
g5
Ntp12
Rp13
(dp14
g9
L104341210115559977766788982130978245266L
sbaF2015.888661752204
aF17237.807014777354
aF15169.616022474609
aF88.00200634262956
aF72.50973184816675
aF71.97283235550103
aF93.26078274996516
aF92.5702317622865
aF14507.039257828284
aF19916.272441175886
aF0.7284013261354928
aF0.8810242977257247
aF0.6663388541310723
aF0.2547274900400841
aI00
aF0.8314024031571848
asS'cb45cd08-acb1-45ad-bb4e-c7ee5ca7d632'
p15
(lp16
g3
(g4
g5
Ntp17
Rp18
(dp19
g9
L104341210590928952852375007692241947282L
sbaF16036.199825739835
aF16921.55357214072
aF2593.953745786255
aF15.329288381989251
aF72.50973184816675
aF71.97283235550103
aF93.26078274996516
aF92.5702317622865
aF15965.59382315797
aF19586.11332050884
aF0.8151486495506086
aF0.24309750049493806
aF0.6663388541310723
aF0.7910686165962058
aI00
aF0.9175040278990977
as.