(dp0
S'a7b82e09-29d1-49c1-8aa0-1647c741baf2'
p1
(lp2
ccopy_reg
_reconstructor
p3
(cuuid
UUID
p4
c__builtin__
object
p5
Ntp6
Rp7
(dp8
S'int'
p9
L104341210194788140281053319724522195602L
sbaF2805.0138913274805
aF18570.30723040249
aF16003.414188661753
aF86.17743363158617
aF69.50082347049745
aF69.03670156742592
aF92.47063050408079
aF91.85311774862407
aF15478.306020899037
aF21900.429289492688
aF0.7067581103684194
aF0.7428390524484286
aF0.6435667028078959
aF0.28549301492427637
aI00
aF0.8334975737805045
asS'37e3c252-8fd6-4717-8058-2072d6138c3f'
p10
(lp11
g3
(g4
g5
Ntp12
Rp13
(dp14
g9
L104341210115559977766788982130978245266L
sbaF2015.888661752204
aF17831.71546555695
aF15169.616022474609
aF85.0709851880244
aF69.50082347049745
aF69.03670156742592
aF92.47063050408079
aF91.85311774862407
aF14500.973260420504
aF20516.246889363265
aF0.7068043847697405
aF0.8843492359884775
aF0.6435667028078959
aF0.30044281800930694
aI00
aF0.8132124634015174
asS'cb45cd08-acb1-45ad-bb4e-c7ee5ca7d632'
p15
(lp16
g3
(g4
g5
Ntp17
Rp18
(dp19
g9
L104341210590928952852375007692241947282L
sbaF16036.199825739835
aF17504.56588096855
aF2593.953745786255
aF14.81872651641406
aF69.50082347049745
aF69.03670156742592
aF92.47063050408079
aF91.85311774862407
aF15137.085987542989
aF20997.633464951643
aF0.7208948576423705
aF0.22834006363283044
aF0.6435667028078959
aF0.6917362166597321
aI00
aF0.8339930786453957
as.