(dp0
S'104d40b1-bfca-440e-a184-35e548e21935'
p1
(lp2
ccopy_reg
_reconstructor
p3
(cuuid
UUID
p4
c__builtin__
object
p5
Ntp6
Rp7
(dp8
S'int'
p9
L160643252583886607699007480487337708178L
sbaF6138.050331601931
aF25111.30793273904
aF17994.28299088882
aF71.65808742056264
aF91.6222222733359
aF88.50430797789744
aF93.69866606089012
aF90.51009015511026
aF23927.867701174393
aF25315.773554055402
aF0.9451762416061477
aF0.717515385733575
aF0.8679827226469874
aF0.8205725372954054
aI00
aF0.9528722185744163
as.