(dp0
S'104d40b1-bfca-440e-a184-35e548e21935'
p1
(lp2
ccopy_reg
_reconstructor
p3
(cuuid
UUID
p4
c__builtin__
object
p5
Ntp6
Rp7
(dp8
S'int'
p9
L160643252583886607699007480487337708178L
sbaF6138.050331601931
aF23484.34891498131
aF17994.28299088882
aF76.62244780995302
aF94.98633808853715
aF91.69208021142114
aF90.84539601246465
aF87.69475174681419
aF21595.81307856993
aF26020.869158902136
aF0.8299420340915734
aF0.7577161969636479
aF0.9069592061071894
aF0.5329630239168567
aI00
aF0.8299420340915734
as.