(dp0
S'104d40b1-bfca-440e-a184-35e548e21935'
p1
(lp2
ccopy_reg
_reconstructor
p3
(cuuid
UUID
p4
c__builtin__
object
p5
Ntp6
Rp7
(dp8
S'int'
p9
L160643252583886607699007480487337708178L
sbaF6138.050331601931
aF24427.912783235763
aF17994.28299088882
aF73.66279366789709
aF92.74347780615969
aF90.05065124195828
aF92.26415134754399
aF89.58524212881223
aF23075.836762969127
aF25484.409342757383
aF0.9054883891012069
aF0.7181858952509766
aF0.8872651005327002
aF0.7385795768649603
aI00
aF0.9446503664777068
as.