(dp0
S'd37731be-5870-4690-b481-81ff38e984cc'
p1
(lp2
ccopy_reg
_reconstructor
p3
(cuuid
UUID
p4
c__builtin__
object
p5
Ntp6
Rp7
(dp8
S'int'
p9
L312113945591170867929009875693117295250L
sbaF8681.287497163228
aF16167.767439010358
aF54528.28394859486
aF337.2653902543552
aF78.05421938602109
aF43.38700966801456
aF86.06009273746224
aF47.83713302114215
aF15341.258044204287
aF64036.08084056417
aF0.23957209502562568
aF0.9259213501572078
aF0.6838914448488415
aF0.10798674493201246
aI00
aF0.8104225217424516
asS'f126168f-b746-4e18-8412-6d8786f7d588'
p10
(lp11
g3
(g4
g5
Ntp12
Rp13
(dp14
g9
L312113945749627192957538550880205195922L
sbaF36208.99493780758
aF91612.15485824736
aF126874.24225453884
aF138.4906210871832
aF78.05421938602109
aF43.38700966801456
aF86.06009273746224
aF47.83713302114215
aF52854.28712396918
aF201841.10492662454
aF0.2618608689403645
aF0.45220143156166304
aF0.6838914448488415
aF0.15310944979737953
aI00
aF0.4750941068595708
asS'c80f2e48-e379-48c4-9a91-b43bd916206d'
p15
(lp16
g3
(g4
g5
Ntp17
Rp18
(dp19
g9
L312113945908083517986067226067293096594L
sbaF5957.405831660177
aF7728.616663212348
aF2502.527992389786
aF32.3800248018722
aF78.05421938602109
aF43.38700966801456
aF86.06009273746224
aF47.83713302114215
aF6163.948771215314
aF10024.601716046996
aF0.6148821614876032
aF0.33603928434278946
aF0.6838914448488415
aF0.4997581598462838
aI00
aF0.6376048089284809
asS'2af7fb50-3da9-49fc-9b13-b58e8b0cb5e5'
p20
(lp21
g3
(g4
g5
Ntp22
Rp23
(dp24
g9
L312113946541908818100181926815644699282L
sbaF3843.2557171836925
aF12714.820962059015
aF8325.47684537089
aF65.47852203514375
aF78.05421938602109
aF43.38700966801456
aF86.06009273746224
aF47.83713302114215
aF8573.18633416503
aF16310.367190448567
aF0.5256280397651336
aF0.6284822068613242
aF0.6838914448488415
aF0.2707089411270149
aI00
aF0.6742671689792086
asS'3016889b-7775-44b0-bb6a-7221248ade09'
p25
(lp26
g3
(g4
g5
Ntp27
Rp28
(dp29
g9
L312113946462680655585917589222100748946L
sbaF9754.314730550936
aF12502.907279358042
aF5711.384837615896
aF45.68045423359442
aF78.05421938602109
aF43.38700966801456
aF86.06009273746224
aF47.83713302114215
aF11625.371059174642
aF16343.23578835023
aF0.7113261541182333
aF0.4395086918640363
aF0.6838914448488415
aF0.641920724362112
aI00
aF0.9298134265434259
asS'5356b171-2c3d-4e37-9f6f-4cb83bd95f02'
p30
(lp31
g3
(g4
g5
Ntp32
Rp33
(dp34
g9
L312113946304224330557388914035012848274L
sbaF6317.607871203939
aF12410.974137598056
aF822.8925262077722
aF6.630362106024257
aF78.05421938602109
aF43.38700966801456
aF86.06009273746224
aF47.83713302114215
aF2795.3490367795316
aF16756.125498230238
aF0.16682550134127205
aF0.4793342168043612
aF0.6838914448488415
aF0.17805947060093055
aI00
aF0.16770534465539877
as.