(dp0
S'd37731be-5870-4690-b481-81ff38e984cc'
p1
(lp2
ccopy_reg
_reconstructor
p3
(cuuid
UUID
p4
c__builtin__
object
p5
Ntp6
Rp7
(dp8
S'int'
p9
L312113945591170867929009875693117295250L
sbaF8681.287497163228
aF16393.60942086907
aF54528.28394859486
aF332.61914779536187
aF79.05699021275105
aF43.73773710023401
aF88.38330376851061
aF48.897456048785244
aF15557.733810413602
aF64045.44705621357
aF0.24291709286935517
aF0.9263415728821338
aF0.6853050934328266
aF0.10908481440495447
aI00
aF0.83793851061205
asS'f126168f-b746-4e18-8412-6d8786f7d588'
p10
(lp11
g3
(g4
g5
Ntp12
Rp13
(dp14
g9
L312113945749627192957538550880205195922L
sbaF36208.99493780758
aF92891.85353610032
aF126874.24225453884
aF136.58274372276577
aF79.05699021275105
aF43.73773710023401
aF88.38330376851061
aF48.897456048785244
aF53778.719424596784
aF202196.3713038499
aF0.26597272284269136
aF0.45007140503074156
aF0.6853050934328266
aF0.1596333104707462
aI00
aF0.49807256617603024
asS'c80f2e48-e379-48c4-9a91-b43bd916206d'
p15
(lp16
g3
(g4
g5
Ntp17
Rp18
(dp19
g9
L312113945908083517986067226067293096594L
sbaF5957.405831660177
aF7836.575050839501
aF2502.527992389786
aF31.93395043312576
aF79.05699021275105
aF43.73773710023401
aF88.38330376851061
aF48.897456048785244
aF6681.5002356565055
aF9615.008639232958
aF0.6949031962793458
aF0.3320348930368307
aF0.6853050934328266
aF0.6025375789168451
aI00
aF0.6936473486047963
asS'2af7fb50-3da9-49fc-9b13-b58e8b0cb5e5'
p20
(lp21
g3
(g4
g5
Ntp22
Rp23
(dp24
g9
L312113946541908818100181926815644699282L
sbaF3843.2557171836925
aF12892.429922348858
aF8325.47684537089
aF64.57647546285115
aF79.05699021275105
aF43.73773710023401
aF88.38330376851061
aF48.897456048785244
aF8707.293883286815
aF16353.868601616625
aF0.5324302215823157
aF0.6286503193800992
aF0.6853050934328266
aF0.274694936923712
aI00
aF0.6753803538767222
asS'3016889b-7775-44b0-bb6a-7221248ade09'
p25
(lp26
g3
(g4
g5
Ntp27
Rp28
(dp29
g9
L312113946462680655585917589222100748946L
sbaF9754.314730550936
aF12677.556090309708
aF5711.384837615896
aF45.0511502132614
aF79.05699021275105
aF43.73773710023401
aF88.38330376851061
aF48.897456048785244
aF11587.202873475937
aF16556.052785000604
aF0.6998771400374896
aF0.438553825174289
aF0.6853050934328266
aF0.6308529825477664
aI00
aF0.9139934219918616
asS'5356b171-2c3d-4e37-9f6f-4cb83bd95f02'
p30
(lp31
g3
(g4
g5
Ntp32
Rp33
(dp34
g9
L312113946304224330557388914035012848274L
sbaF6317.607871203939
aF12584.338766116256
aF822.8925262077722
aF6.5390207741660396
aF79.05699021275105
aF43.73773710023401
aF88.38330376851061
aF48.897456048785244
aF3330.8967541924167
aF16393.942409335552
aF0.2031785077087762
aF0.4670119581703517
aF0.6853050934328266
aF0.23393772370754842
aI00
aF0.20419041578457037
as.