(dp0
S'd37731be-5870-4690-b481-81ff38e984cc'
p1
(lp2
ccopy_reg
_reconstructor
p3
(cuuid
UUID
p4
c__builtin__
object
p5
Ntp6
Rp7
(dp8
S'int'
p9
L312113945591170867929009875693117295250L
sbaF8681.287497163228
aF15971.015130423766
aF54528.28394859486
aF341.4202760644935
aF78.95894551896656
aF43.72386830977149
aF85.99817447116361
aF47.621872743407984
aF15194.96880585721
aF63985.61777032468
aF0.2374747534734962
aF0.9242675459028078
aF0.6909894593000009
aF0.09835987866841758
aI00
aF0.802535689580634
asS'f126168f-b746-4e18-8412-6d8786f7d588'
p10
(lp11
g3
(g4
g5
Ntp12
Rp13
(dp14
g9
L312113945749627192957538550880205195922L
sbaF36208.99493780758
aF90497.28831709092
aF126874.24225453884
aF140.19673364133047
aF78.95894551896656
aF43.72386830977149
aF85.99817447116361
aF47.621872743407984
aF53134.27051677631
aF200446.254992661
aF0.2650798864699255
aF0.45778341895599806
aF0.6909894593000009
aF0.1598345276939951
aI00
aF0.4857506926399529
asS'c80f2e48-e379-48c4-9a91-b43bd916206d'
p15
(lp16
g3
(g4
g5
Ntp17
Rp18
(dp19
g9
L312113945908083517986067226067293096594L
sbaF5957.405831660177
aF7634.563901975892
aF2502.527992389786
aF32.778925221152576
aF78.95894551896656
aF43.72386830977149
aF85.99817447116361
aF47.621872743407984
aF6206.531440890714
aF9887.96628513514
aF0.6276853360858611
aF0.3337741463994167
aF0.6909894593000009
aF0.5211084744519568
aI00
aF0.6494195751813684
asS'2af7fb50-3da9-49fc-9b13-b58e8b0cb5e5'
p20
(lp21
g3
(g4
g5
Ntp22
Rp23
(dp24
g9
L312113946541908818100181926815644699282L
sbaF3843.2557171836925
aF12560.089000024867
aF8325.47684537089
aF66.28517397730546
aF78.95894551896656
aF43.72386830977149
aF85.99817447116361
aF47.621872743407984
aF8367.936318853852
aF16360.8852437256
aF0.5114598748293865
aF0.6288527673057365
aF0.6909894593000009
aF0.26107725268049503
aI00
aF0.6662322471470771
asS'3016889b-7775-44b0-bb6a-7221248ade09'
p25
(lp26
g3
(g4
g5
Ntp27
Rp28
(dp29
g9
L312113946462680655585917589222100748946L
sbaF9754.314730550936
aF12350.754183357785
aF5711.384837615896
aF46.243207117762815
aF78.95894551896656
aF43.72386830977149
aF85.99817447116361
aF47.621872743407984
aF11379.253687387492
aF16437.200064137127
aF0.6922866207739894
aF0.44065448524658896
aF0.6909894593000009
aF0.6242407512671027
aI00
aF0.9213407957483798
asS'5356b171-2c3d-4e37-9f6f-4cb83bd95f02'
p30
(lp31
g3
(g4
g5
Ntp32
Rp33
(dp34
g9
L312113946304224330557388914035012848274L
sbaF6317.607871203939
aF12259.939814362519
aF822.8925262077722
aF6.712043767488594
aF78.95894551896656
aF43.72386830977149
aF85.99817447116361
aF47.621872743407984
aF2929.3260277641302
aF16471.1141840101
aF0.17784625830642797
aF0.4779122399536471
aF0.6909894593000009
aF0.19468862621548996
aI00
aF0.17953975428697563
as.