(dp0
S'a7b82e09-29d1-49c1-8aa0-1647c741baf2'
p1
(lp2
ccopy_reg
_reconstructor
p3
(cuuid
UUID
p4
c__builtin__
object
p5
Ntp6
Rp7
(dp8
S'int'
p9
L132951431481843349748899527615652481682L
sbaF6052.699309298892
aF33767.54657991025
aF48714.03068462964
aF144.26286662357543
aF44.73928787658003
aF40.91069482534141
aF94.07499359733325
aF86.02446611071647
aF30847.914693782306
aF57686.36188005649
aF0.5347522999963558
aF0.8890664266270744
aF0.41293275740139224
aF0.24699716190366616
aI00
aF0.8163235030243519
asS'590f12d9-048b-4408-9515-9e0daa4f249b'
p10
(lp11
g3
(g4
g5
Ntp12
Rp13
(dp14
g9
L132951431719527837291692540396284332690L
sbaF5572.4273704189545
aF144034.063670066
aF52394.44509157623
aF36.37642635119594
aF44.73928787658003
aF40.91069482534141
aF94.07499359733325
aF86.02446611071647
aF57069.02142165339
aF144931.91471040781
aF0.39376435159698586
aF0.36117911769454963
aF0.41293275740139224
aF0.058156411124736754
aI01
aF0.39453975574369005
asS'37e3c252-8fd6-4717-8058-2072d6138c3f'
p15
(lp16
g3
(g4
g5
Ntp17
Rp18
(dp19
g9
L132951431798755999805956877989828283026L
sbaF5151.806150182478
aF32424.519159118372
aF30160.40187980773
aF93.01726798722957
aF44.73928787658003
aF40.91069482534141
aF94.07499359733325
aF86.02446611071647
aF32409.415385146905
aF35327.311803961675
aF0.9174039498106519
aF0.8957850822194966
aF0.41293275740139224
aF0.6510689897152105
aI00
aF0.9995341866475383
as.