(dp0
S'a7b82e09-29d1-49c1-8aa0-1647c741baf2'
p1
(lp2
ccopy_reg
_reconstructor
p3
(cuuid
UUID
p4
c__builtin__
object
p5
Ntp6
Rp7
(dp8
S'int'
p9
L132951431481843349748899527615652481682L
sbaF6052.699309298892
aF35295.406608002566
aF48714.03068462964
aF138.01804644342772
aF42.383777929562434
aF39.01830816169699
aF93.15442245398626
aF85.75752657007342
aF30460.185676208614
aF59601.950925722485
aF0.5110602120083099
aF0.7983806861850928
aF0.40046760453422264
aF0.20949958107892178
aI00
aF0.8312008010654033
asS'590f12d9-048b-4408-9515-9e0daa4f249b'
p10
(lp11
g3
(g4
g5
Ntp12
Rp13
(dp14
g9
L132951431719527837291692540396284332690L
sbaF5572.4273704189545
aF150551.08699139094
aF52394.44509157623
aF34.80177137118401
aF42.383777929562434
aF39.01830816169699
aF93.15442245398626
aF85.75752657007342
aF57663.76200424547
aF150854.19744914063
aF0.38224830982039054
aF0.35304636260991573
aF0.40046760453422264
aF0.05473320112552029
aI01
aF0.38301790546050923
asS'37e3c252-8fd6-4717-8058-2072d6138c3f'
p15
(lp16
g3
(g4
g5
Ntp17
Rp18
(dp19
g9
L132951431798755999805956877989828283026L
sbaF5151.806150182478
aF33891.61202700247
aF30160.40187980773
aF88.99075634342218
aF42.383777929562434
aF39.01830816169699
aF93.15442245398626
aF85.75752657007342
aF31211.964775850913
aF37991.85528114177
aF0.821543579403551
aF0.9111165147499383
aF0.40046760453422264
aF0.5102500592919904
aI00
aF0.8874943467787448
as.