(dp0
S'a7b82e09-29d1-49c1-8aa0-1647c741baf2'
p1
(lp2
ccopy_reg
_reconstructor
p3
(cuuid
UUID
p4
c__builtin__
object
p5
Ntp6
Rp7
(dp8
S'int'
p9
L132951431481843349748899527615652481682L
sbaF6052.699309298892
aF35148.33370425677
aF48714.03068462964
aF138.59556215243836
aF44.6403048064379
aF40.99509609561784
aF97.70516333554664
aF89.72681923536327
aF33907.98085477194
aF56007.08284341338
aF0.6054230846047293
aF0.8850185035316513
aF0.40854212451601585
aF0.4074244824967063
aI00
aF0.9625467626950112
asS'590f12d9-048b-4408-9515-9e0daa4f249b'
p10
(lp11
g3
(g4
g5
Ntp12
Rp13
(dp14
g9
L132951431719527837291692540396284332690L
sbaF5572.4273704189545
aF149923.75364538864
aF52394.44509157623
aF34.947394137091614
aF44.6403048064379
aF40.99509609561784
aF97.70516333554664
aF89.72681923536327
aF57734.17785565001
aF150156.44825173382
aF0.3844934968018156
aF0.3519656028769997
aF0.40854212451601585
aF0.05639464143756446
aI01
aF0.3846817157532367
asS'37e3c252-8fd6-4717-8058-2072d6138c3f'
p15
(lp16
g3
(g4
g5
Ntp17
Rp18
(dp19
g9
L132951431798755999805956877989828283026L
sbaF5151.806150182478
aF33750.38861374655
aF30160.40187980773
aF89.36312474791292
aF44.6403048064379
aF40.99509609561784
aF97.70516333554664
aF89.72681923536327
aF33723.301993091314
aF35339.294650645454
aF0.9542720738053942
aF0.889948416532355
aF0.40854212451601585
aF0.7119662932004494
aI00
aF0.9991974427030981
as.