(dp0
S'92f3122f-b1fa-4626-ae60-4f2cd3508cdc'
p1
(lp2
ccopy_reg
_reconstructor
p3
(cuuid
UUID
p4
c__builtin__
object
p5
Ntp6
Rp7
(dp8
S'int'
p9
L314917350776138669555397767022777387666L
sbaF4932.560578780229
aF30335.801845189035
aF6889.396472489152
aF22.710447897990026
aF32.10351261960708
aF24.697947960223868
aF94.54014492932302
aF72.73184113162692
aF11318.506696629267
aF30839.252199829152
aF0.3670162500468144
aF0.2238112103986336
aF0.2901752146407399
aF0.20249323547057724
aI01
aF0.3728107809736831
asS'096621fb-2202-43ca-bd6c-38e97b8909db'
p10
(lp11
g3
(g4
g5
Ntp12
Rp13
(dp14
g9
L314917350379997856984076079055057635986L
sbaF10900.915337596864
aF15216.112382427229
aF4891.708877414035
aF32.14821732693935
aF32.10351261960708
aF24.697947960223868
aF94.54014492932302
aF72.73184113162692
aF12271.877727325005
aF18736.85887011313
aF0.6549591803191561
aF0.334323671534007
aF0.2901752146407399
aF0.5526381454211466
aI00
aF0.7069615500704405
asS'18f178ba-f029-4b2f-9e0c-de8709d2b86c'
p15
(lp16
g3
(g4
g5
Ntp17
Rp18
(dp19
g9
L314917350459226019498340416648601586322L
sbaF5667.333936468145
aF61638.71118314184
aF93086.11168771391
aF151.0189131163614
aF32.10351261960708
aF24.697947960223868
aF94.54014492932302
aF72.73184113162692
aF56964.02942139354
aF103428.12738593032
aF0.5507595550757555
aF0.8931479104033249
aF0.2901752146407399
aF0.18611629570386376
aI01
aF0.9031417414296079
as.