(dp0
S'92f3122f-b1fa-4626-ae60-4f2cd3508cdc'
p1
(lp2
ccopy_reg
_reconstructor
p3
(cuuid
UUID
p4
c__builtin__
object
p5
Ntp6
Rp7
(dp8
S'int'
p9
L314917350776138669555397767022777387666L
sbaF4932.560578780229
aF29106.361799096987
aF6889.396472489152
aF23.66972732642557
aF33.08907508328636
aF25.523879246566437
aF93.49336316312667
aF72.11786082640853
aF11318.295129081136
aF29610.023721285226
aF0.38224539215566233
aF0.23290482758372413
aF0.29843889381666877
aF0.2134419943781541
aI01
aF0.3885068480720575
asS'096621fb-2202-43ca-bd6c-38e97b8909db'
p10
(lp11
g3
(g4
g5
Ntp12
Rp13
(dp14
g9
L314917350379997856984076079055057635986L
sbaF10900.915337596864
aF14599.438460166628
aF4891.708877414035
aF33.50614402574909
aF33.08907508328636
aF25.523879246566437
aF93.49336316312667
aF72.11786082640853
aF13088.474063022415
aF17303.58861215511
aF0.7564022906686688
aF0.37605449022701126
aF0.29843889381666877
aF0.7321577962314234
aI00
aF0.7600361977168699
asS'18f178ba-f029-4b2f-9e0c-de8709d2b86c'
p15
(lp16
g3
(g4
g5
Ntp17
Rp18
(dp19
g9
L314917350459226019498340416648601586322L
sbaF5667.333936468145
aF59140.6364559668
aF93086.11168771391
aF157.39788623516293
aF33.08907508328636
aF25.523879246566437
aF93.49336316312667
aF72.11786082640853
aF55489.040523338976
aF102405.04155680988
aF0.5418584835255016
aF0.9088858581020113
aF0.29843889381666877
aF0.18781617435095327
aI01
aF0.9054745000369125
as.