(dp0
S'92f3122f-b1fa-4626-ae60-4f2cd3508cdc'
p1
(lp2
ccopy_reg
_reconstructor
p3
(cuuid
UUID
p4
c__builtin__
object
p5
Ntp6
Rp7
(dp8
S'int'
p9
L314917350776138669555397767022777387666L
sbaF4932.560578780229
aF30811.607104418024
aF6889.396472489152
aF22.359744005372875
aF31.4038498850707
aF23.64519656540731
aF93.9302493828178
aF70.72378763185695
aF8101.972480482064
aF34531.59167520534
aF0.2346249358178155
aF0.18139835315998576
aF0.28549937465435415
aF0.13012594058287577
aI01
aF0.2619677334672234
asS'096621fb-2202-43ca-bd6c-38e97b8909db'
p10
(lp11
g3
(g4
g5
Ntp12
Rp13
(dp14
g9
L314917350379997856984076079055057635986L
sbaF10900.915337596864
aF15454.771190047517
aF4891.708877414035
aF31.65177159377275
aF31.4038498850707
aF23.64519656540731
aF93.9302493828178
aF70.72378763185695
aF13488.099011701499
aF17759.29639335692
aF0.759495123734006
aF0.33580747421690543
aF0.28549937465435415
aF0.6842310935953239
aI00
aF0.7596471912945892
asS'18f178ba-f029-4b2f-9e0c-de8709d2b86c'
p15
(lp16
g3
(g4
g5
Ntp17
Rp18
(dp19
g9
L314917350459226019498340416648601586322L
sbaF5667.333936468145
aF62605.49040667129
aF93086.11168771391
aF148.6868181736894
aF31.4038498850707
aF23.64519656540731
aF93.9302493828178
aF70.72378763185695
aF57094.84626019625
aF104264.08977065708
aF0.5475983762557566
aF0.8904958827918051
aF0.28549937465435415
aF0.17651587143185798
aI01
aF0.8886994164038183
as.