(dp0
S'39f90a35-71f5-4d79-89fc-5b9916ef4860'
p1
(lp2
ccopy_reg
_reconstructor
p3
(cuuid
UUID
p4
c__builtin__
object
p5
Ntp6
Rp7
(dp8
S'int'
p9
L58681660130924935043579920215379462802L
sbaF3861.952544514599
aF48211.01821131122
aF35533.93655823399
aF73.70501158570647
aF38.17119491445227
aF32.973264288005446
aF91.58783223592161
aF79.11593558044846
aF37683.53848281145
aF49923.36883124836
aF0.754827636135491
aF0.7105279013647542
aF0.3572676018764508
aF0.25354139584452556
aI01
aF0.7574907003310095
asS'2131d157-c89d-40c5-b2f1-c76b3e24c740'
p10
(lp11
g3
(g4
g5
Ntp12
Rp13
(dp14
g9
L58681660843978397671958958557275015826L
sbaF2363.8990094075525
aF62977.7008928952
aF24373.502240865873
aF38.701797454177246
aF38.17119491445227
aF32.973264288005446
aF91.58783223592161
aF79.11593558044846
aF26463.535164550733
aF63251.56697861789
aF0.41838544764427255
aF0.4360856998466219
aF0.3572676018764508
aF0.0656911367141055
aI01
aF0.41845699469507885
asS'16d16958-d9ab-4fda-bbfb-5251b3d5bee3'
p15
(lp16
g3
(g4
g5
Ntp17
Rp18
(dp19
g9
L58681660685522072643430283370187115154L
sbaF7895.055809564519
aF12581.436818755108
aF3933.152180186857
aF31.261550146035145
aF38.17119491445227
aF32.973264288005446
aF91.58783223592161
aF79.11593558044846
aF9581.624849049686
aF14828.019959456797
aF0.646183703235364
aF0.23167167645857162
aF0.3572676018764508
aF0.6240482095705872
aI00
aF0.7562615570322272
as.