(dp0
S'39f90a35-71f5-4d79-89fc-5b9916ef4860'
p1
(lp2
ccopy_reg
_reconstructor
p3
(cuuid
UUID
p4
c__builtin__
object
p5
Ntp6
Rp7
(dp8
S'int'
p9
L58681660130924935043579920215379462802L
sbaF3861.952544514599
aF41356.617077577284
aF35533.93655823399
aF85.92080075500122
aF43.65264862207693
aF38.19938651783892
aF89.84860263755543
aF78.62435862606321
aF37980.65366074565
aF42771.852519580214
aF0.8879824329179749
aF0.8311613647329689
aF0.4060634205768736
aF0.5021517093131751
aI01
aF0.888378179626795
asS'2131d157-c89d-40c5-b2f1-c76b3e24c740'
p10
(lp11
g3
(g4
g5
Ntp12
Rp13
(dp14
g9
L58681660843978397671958958557275015826L
sbaF2363.8990094075525
aF54023.8467654389
aF24373.502240865873
aF45.11619164531343
aF43.65264862207693
aF38.19938651783892
aF89.84860263755543
aF78.62435862606321
aF26674.684013857604
aF54086.56400185475
aF0.49318503599050717
aF0.46201916668993315
aF0.4060634205768736
aF0.0810127487609923
aI01
aF0.4931800673685622
asS'16d16958-d9ab-4fda-bbfb-5251b3d5bee3'
p15
(lp16
g3
(g4
g5
Ntp17
Rp18
(dp19
g9
L58681660685522072643430283370187115154L
sbaF7895.055809564519
aF10792.67113833553
aF3933.152180186857
aF36.442805768595264
aF43.65264862207693
aF38.19938651783892
aF89.84860263755543
aF78.62435862606321
aF10575.125162203505
aF12045.753965883398
aF0.8779130963619975
aF0.3451890120677
aF0.4060634205768736
aF0.8682045540103844
aI00
aF0.972777756665498
as.