(dp0
S'39f90a35-71f5-4d79-89fc-5b9916ef4860'
p1
(lp2
ccopy_reg
_reconstructor
p3
(cuuid
UUID
p4
c__builtin__
object
p5
Ntp6
Rp7
(dp8
S'int'
p9
L58681660130924935043579920215379462802L
sbaF3861.952544514599
aF42120.2964193784
aF35533.93655823399
aF84.36297837136254
aF43.2665301007854
aF37.85778902468144
aF90.6983124494913
aF79.36013286966012
aF38809.03086032939
aF42707.1546617976
aF0.9087243382909056
aF0.8349829383559982
aF0.4012276918699646
aF0.507414085098102
aI01
aF0.910059875364007
asS'2131d157-c89d-40c5-b2f1-c76b3e24c740'
p10
(lp11
g3
(g4
g5
Ntp12
Rp13
(dp14
g9
L58681660843978397671958958557275015826L
sbaF2363.8990094075525
aF55021.4355107177
aF24373.502240865873
aF44.298193994080954
aF43.2665301007854
aF37.85778902468144
aF90.6983124494913
aF79.36013286966012
aF26680.353487439228
aF55078.4832735519
aF0.4844061038305833
aF0.45457584745190366
aF0.4012276918699646
aF0.07847423377844087
aI01
aF0.4843990077223361
asS'16d16958-d9ab-4fda-bbfb-5251b3d5bee3'
p15
(lp16
g3
(g4
g5
Ntp17
Rp18
(dp19
g9
L58681660685522072643430283370187115154L
sbaF7895.055809564519
aF10991.965485253195
aF3933.152180186857
aF35.782064503964904
aF43.2665301007854
aF37.85778902468144
aF90.6983124494913
aF79.36013286966012
aF10989.012480677871
aF11831.160994326698
aF0.928819452794814
aF0.35105882484088147
aF0.4012276918699646
aF0.9276378304409828
aI00
aF0.9925414012619651
as.