(dp0
S'97c6b11a-d61a-43f5-b1ff-fe83814d38ec'
p1
(lp2
ccopy_reg
_reconstructor
p3
(cuuid
UUID
p4
c__builtin__
object
p5
Ntp6
Rp7
(dp8
S'int'
p9
L235454464689972973894630395520285067922L
sbaF2947.5038395917654
aF71090.38185911687
aF113603.01538485374
aF159.80082314086616
aF87.13421269830572
aF59.877172295182966
aF87.13640338365867
aF59.87867769748434
aF69812.71910565111
aF117828.18197791123
aF0.592495937166701
aF1.0
aF0.8401950754673165
aF0.0
aI00
aF0.7747985115284327
asS'18f178ba-f029-4b2f-9e0c-de8709d2b86c'
p10
(lp11
g3
(g4
g5
Ntp12
Rp13
(dp14
g9
L235454465165341948980216421081548769938L
sbaF6404.077205460498
aF28768.505215763467
aF42501.44727388613
aF147.73602922753807
aF87.13421269830572
aF59.877172295182966
aF87.13640338365867
aF59.87867769748434
aF25960.738969113954
aF51713.290725996136
aF0.5020128985151502
aF0.8829665312667146
aF0.8401950754673165
aF0.068552830140622
aI00
aF0.8663378675808318
as.