(dp0
S'97c6b11a-d61a-43f5-b1ff-fe83814d38ec'
p1
(lp2
ccopy_reg
_reconstructor
p3
(cuuid
UUID
p4
c__builtin__
object
p5
Ntp6
Rp7
(dp8
S'int'
p9
L235454464689972973894630395520285067922L
sbaF2947.5038395917654
aF73692.7126927322
aF113603.01538485374
aF154.15773315135084
aF83.00521402397487
aF58.045628769460386
aF86.04586185443928
aF60.171956823199565
aF71977.61168171393
aF118265.6202354638
aF0.6086097678971146
aF1.0
aF0.8082974048949763
aF0.0
aI00
aF0.79003749729085
asS'18f178ba-f029-4b2f-9e0c-de8709d2b86c'
p10
(lp11
g3
(g4
g5
Ntp12
Rp13
(dp14
g9
L235454465165341948980216421081548769938L
sbaF6404.077205460498
aF29821.60362657759
aF42501.44727388613
aF142.51898659134486
aF83.00521402397487
aF58.045628769460386
aF86.04586185443928
aF60.171956823199565
aF27316.28166275884
aF51410.8464431654
aF0.531333046479928
aF0.8880234624425327
aF0.8082974048949763
aF0.1024570784325983
aI00
aF0.8908034330721494
as.