(dp0
S'97c6b11a-d61a-43f5-b1ff-fe83814d38ec'
p1
(lp2
ccopy_reg
_reconstructor
p3
(cuuid
UUID
p4
c__builtin__
object
p5
Ntp6
Rp7
(dp8
S'int'
p9
L235454464689972973894630395520285067922L
sbaF2947.5038395917654
aF70717.41147916295
aF113603.01538485374
aF160.64362793924823
aF81.80284418969222
aF57.33003988524194
aF81.37571753271816
aF57.03069591348968
aF67563.7286535732
aF119704.20205003527
aF0.5644223635969953
aF1.0
aF0.8313327301999545
aF0.0
aI00
aF0.7440171093625157
asS'18f178ba-f029-4b2f-9e0c-de8709d2b86c'
p10
(lp11
g3
(g4
g5
Ntp12
Rp13
(dp14
g9
L235454465165341948980216421081548769938L
sbaF6404.077205460498
aF28617.5734013544
aF42501.44727388613
aF148.51520315092347
aF81.80284418969222
aF57.33003988524194
aF81.37571753271816
aF57.03069591348968
aF27872.275196517443
aF49650.8226841836
aF0.561365828191931
aF0.9415728814752793
aF0.8313327301999545
aF0.1417256074857607
aI00
aF0.9363641705717834
as.