(dp0
S'8b445b57-9fb4-4937-9d74-3eb02337b1a4'
p1
(lp2
ccopy_reg
_reconstructor
p3
(cuuid
UUID
p4
c__builtin__
object
p5
Ntp6
Rp7
(dp8
S'int'
p9
L151951989478059012488160943445849852562L
sbaF20770.88879916304
aF53762.51608312578
aF26343.183682775616
aF48.99916447743011
aF75.11895089917262
aF65.32112503086265
aF95.69451308414264
aF83.21299990367214
aF46626.58709274247
aF54250.001472321965
aF0.8594762364482347
aF0.49184826171316615
aF0.6195179267975544
aF0.7267888107598981
aI00
aF0.8659076374122935
asS'2a0cfb21-2c7b-45a4-b8ce-0959b8ba7af2'
p10
(lp11
g3
(g4
g5
Ntp12
Rp13
(dp14
g9
L151951989161146362431103593071674051218L
sbaF13205.348016365191
aF32929.61237877748
aF20746.181931163992
aF63.00159774894441
aF75.11895089917262
aF65.32112503086265
aF95.69451308414264
aF83.21299990367214
aF31099.318180157105
aF35781.824146149556
aF0.8691373042674704
aF0.6482112488761645
aF0.6195179267975544
aF0.7318496647056406
aI00
aF0.9433575667872837
asS'fd01a700-6fa5-443a-9048-08d9f1af4c74'
p15
(lp16
g3
(g4
g5
Ntp17
Rp18
(dp19
g9
L151951990032656150088011306600657504914L
sbaF2856.3293016564926
aF2855.6763006288866
aF1365.6580297598334
aF47.8225781213047
aF75.11895089917262
aF65.32112503086265
aF95.69451308414264
aF83.21299990367214
aF2747.39121649371
aF4330.272415551501
aF0.6344615194708955
aF0.46005969438874517
aF0.6195179267975544
aF0.4904980423910066
aI00
aF0.9520070086568893
as.