(dp0
S'8b445b57-9fb4-4937-9d74-3eb02337b1a4'
p1
(lp2
ccopy_reg
_reconstructor
p3
(cuuid
UUID
p4
c__builtin__
object
p5
Ntp6
Rp7
(dp8
S'int'
p9
L151951989478059012488160943445849852562L
sbaF20770.88879916304
aF54407.652899280074
aF26343.183682775616
aF48.41815862107184
aF74.76586056602152
aF64.82587451590601
aF96.38762185570128
aF83.57306171560307
aF46339.725019775135
aF55182.0003614436
aF0.8397616019036765
aF0.484645252983771
aF0.6170543664008115
aF0.6957100472926355
aI00
aF0.8414465864692351
asS'2a0cfb21-2c7b-45a4-b8ce-0959b8ba7af2'
p10
(lp11
g3
(g4
g5
Ntp12
Rp13
(dp14
g9
L151951989161146362431103593071674051218L
sbaF13205.348016365191
aF33324.759533988596
aF20746.181931163992
aF62.25455853628754
aF74.76586056602152
aF64.82587451590601
aF96.38762185570128
aF83.57306171560307
aF30870.146590831326
aF36406.14289068645
aF0.8479378516840529
aF0.6284197877074276
aF0.6170543664008115
aF0.720452075833144
aI00
aF0.9251229108214726
asS'fd01a700-6fa5-443a-9048-08d9f1af4c74'
p15
(lp16
g3
(g4
g5
Ntp17
Rp18
(dp19
g9
L151951990032656150088011306600657504914L
sbaF2856.3293016564926
aF2889.943705705436
aF1365.6580297598334
aF47.25552359596831
aF74.76586056602152
aF64.82587451590601
aF96.38762185570128
aF83.57306171560307
aF2787.8286951713253
aF4324.102341950436
aF0.6447184813655088
aF0.47609712923773434
aF0.6170543664008115
aF0.4893309798793991
aI00
aF0.964665398037854
as.