(dp0
S'8b445b57-9fb4-4937-9d74-3eb02337b1a4'
p1
(lp2
ccopy_reg
_reconstructor
p3
(cuuid
UUID
p4
c__builtin__
object
p5
Ntp6
Rp7
(dp8
S'int'
p9
L151951989478059012488160943445849852562L
sbaF20770.88879916304
aF55645.960819410924
aF26343.183682775616
aF47.34069336724679
aF73.71261851184649
aF64.139918249585
aF97.19264969474604
aF84.57071166017114
aF46815.18354097283
aF55944.84976037676
aF0.8368095319138731
aF0.4757069160204151
aF0.6040626102096853
aF0.6907927808149881
aI00
aF0.8394665771671395
asS'2a0cfb21-2c7b-45a4-b8ce-0959b8ba7af2'
p10
(lp11
g3
(g4
g5
Ntp12
Rp13
(dp14
g9
L151951989161146362431103593071674051218L
sbaF13205.348016365191
aF34083.22477680632
aF20746.181931163992
aF60.869187311412496
aF73.71261851184649
aF64.139918249585
aF97.19264969474604
aF84.57071166017114
aF31094.173014500208
aF36940.581709835285
aF0.8417347961313101
aF0.6014796636137307
aF0.6040626102096853
aF0.6761277389356625
aI00
aF0.9111140072374699
asS'fd01a700-6fa5-443a-9048-08d9f1af4c74'
p15
(lp16
g3
(g4
g5
Ntp17
Rp18
(dp19
g9
L151951990032656150088011306600657504914L
sbaF2856.3293016564926
aF2955.71827947969
aF1365.6580297598334
aF46.20393084283517
aF73.71261851184649
aF64.139918249585
aF97.19264969474604
aF84.57071166017114
aF2796.7227951440436
aF4380.982815751973
aF0.6383779422937546
aF0.4786161259809723
aF0.6040626102096853
aF0.48934036629105365
aI00
aF0.9414955932689331
as.