(dp0
S'4f7c3118-d3e5-46cf-a114-3f5bd59e2ccd'
p1
(lp2
ccopy_reg
_reconstructor
p3
(cuuid
UUID
p4
c__builtin__
object
p5
Ntp6
Rp7
(dp8
S'int'
p9
L263529258486311205847487704499481397906L
sbaF18098.714283294976
aF428390.4713094813
aF217203.15932794608
aF50.70214532643804
aF6.463890406196517
aF5.2503024118548325
aF81.05577921999033
aF65.83764983476884
aF150565.0255881019
aF513127.31933262036
aF0.29342625098178093
aF0.35309847895522806
aF0.06360943230609584
aF0.04866452896582725
aI01
aF0.3322327111825873
as.