(dp0
S'6e467329-6d5b-4523-8454-193af31cf93d'
p1
(lp2
ccopy_reg
_reconstructor
p3
(cuuid
UUID
p4
c__builtin__
object
p5
Ntp6
Rp7
(dp8
S'int'
p9
L263529258486311205847487704499481397906L
sbaF18098.714283294976
aF65569.74539679039
aF217203.15932794608
aF331.2551513103452
aF30.636519235720495
aF12.015773318398791
aF82.52248692990347
aF32.36567081890065
aF57641.65628768518
aF243229.96272034623
aF0.23698419242023527
aF0.8411953464453754
aF0.2948247479939955
aF0.09851015982008456
aI01
aF0.5394864311195892
as.