(dp0
S'64bea419-c9e0-436a-95a2-f2e46020c312'
p1
(lp2
ccopy_reg
_reconstructor
p3
(cuuid
UUID
p4
c__builtin__
object
p5
Ntp6
Rp7
(dp8
S'int'
p9
L263529258486311205847487704499481397906L
sbaF18098.714283294976
aF67158.78458426538
aF217203.15932794608
aF323.4173469226758
aF14.96067024428975
aF6.150401911753088
aF95.91125998062712
aF39.42957014032504
aF66744.21923902842
aF235716.43895647806
aF0.28315470713246205
aF0.935327829365341
aF0.14041775968936962
aF0.21695126563428685
aI01
aF0.8789096868012042
as.