(dp0
S'f126168f-b746-4e18-8412-6d8786f7d588'
p1
(lp2
ccopy_reg
_reconstructor
p3
(cuuid
UUID
p4
c__builtin__
object
p5
Ntp6
Rp7
(dp8
S'int'
p9
L18827573074447132949101458223189117586L
sbaF37550.39342862193
aF92385.52982430784
aF39973.600896523385
aF43.26824879669176
aF79.35247039104011
aF63.88123043173105
aF83.05334683600998
aF66.86055218208679
aF51140.17157099309
aF118769.3525784601
aF0.4305839045237654
aF0.45023183515878334
aF0.7449597163188264
aF0.14420326299101976
aI00
aF0.4305839045237654
asS'056db688-8665-4ebd-846d-02b3fc658d4d'
p10
(lp11
g3
(g4
g5
Ntp12
Rp13
(dp14
g9
L18827572678306320377779770255469365906L
sbaF3014.6308954610304
aF7674.43833829846
aF5793.1288020164375
aF75.48602968254303
aF79.35247039104011
aF63.88123043173105
aF83.05334683600998
aF66.86055218208679
aF6166.530890297011
aF10315.667145478918
aF0.5977830423696482
aF0.7991001657036976
aF0.7449597163188264
aF0.19913602334704128
aI00
aF0.6476230675825685
asS'da8023ac-824f-4467-8046-690df018cc81'
p15
(lp16
g3
(g4
g5
Ntp17
Rp18
(dp19
g9
L18827573232903457977630133410277018258L
sbaF1679.8002734387555
aF3295.105895866474
aF4969.344924552732
aF150.80987020133395
aF79.35247039104011
aF63.88123043173105
aF83.05334683600998
aF66.86055218208679
aF2258.418859040383
aF7685.832234817582
aF0.29384181049509794
aF0.7248633032743753
aF0.7449597163188264
aF0.16222327573446627
aI00
aF0.5701094830344411
as.