(dp0
S'f126168f-b746-4e18-8412-6d8786f7d588'
p1
(lp2
ccopy_reg
_reconstructor
p3
(cuuid
UUID
p4
c__builtin__
object
p5
Ntp6
Rp7
(dp8
S'int'
p9
L18827573074447132949101458223189117586L
sbaF37550.39342862193
aF87435.7389027228
aF39973.600896523385
aF45.717690955864484
aF84.0394159611724
aF67.26154397535176
aF83.24626222414301
aF66.62673774362992
aF53902.6146987616
aF111057.11852910652
aF0.4853593845462007
aF0.4774338912364762
aF0.7667778539473834
aF0.17635753018526995
aI00
aF0.4858292346980807
asS'056db688-8665-4ebd-846d-02b3fc658d4d'
p10
(lp11
g3
(g4
g5
Ntp12
Rp13
(dp14
g9
L18827572678306320377779770255469365906L
sbaF3014.6308954610304
aF7263.260686479884
aF5793.1288020164375
aF79.75934022029519
aF84.0394159611724
aF67.26154397535176
aF83.24626222414301
aF66.62673774362992
aF6705.922761070202
aF9365.09762288715
aF0.7160547632393868
aF0.7865019060944425
aF0.7667778539473834
aF0.45566667318879067
aI00
aF0.7437156039359477
asS'da8023ac-824f-4467-8046-690df018cc81'
p15
(lp16
g3
(g4
g5
Ntp17
Rp18
(dp19
g9
L18827573232903457977630133410277018258L
sbaF1679.8002734387555
aF3118.562174354691
aF4969.344924552732
aF159.34730964858878
aF84.0394159611724
aF67.26154397535176
aF83.24626222414301
aF66.62673774362992
aF2938.415943301483
aF6829.291429044697
aF0.4302665911729173
aF0.8268821721046882
aF0.7667778539473834
aF0.20431223007190155
aI00
aF0.7121334188579455
as.