(dp0
S'f126168f-b746-4e18-8412-6d8786f7d588'
p1
(lp2
ccopy_reg
_reconstructor
p3
(cuuid
UUID
p4
c__builtin__
object
p5
Ntp6
Rp7
(dp8
S'int'
p9
L18827573074447132949101458223189117586L
sbaF37550.39342862193
aF95862.39216114402
aF39973.600896523385
aF41.698939485390724
aF80.04817064387646
aF64.36048794508
aF86.93454914808684
aF69.89728756386548
aF55631.802158229446
aF117754.5843280599
aF0.472438525223284
aF0.4364204295509537
aF0.7260709066328762
aF0.18229528818890925
aI00
aF0.47286253236201115
asS'056db688-8665-4ebd-846d-02b3fc658d4d'
p10
(lp11
g3
(g4
g5
Ntp12
Rp13
(dp14
g9
L18827572678306320377779770255469365906L
sbaF3014.6308954610304
aF7963.26025300247
aF5793.1288020164375
aF72.74820385070542
aF80.04817064387646
aF64.36048794508
aF86.93454914808684
aF69.89728756386548
aF7185.61892716878
aF9585.401023311158
aF0.7496419721714049
aF0.7584437515107557
aF0.7260709066328762
aF0.44964898378600326
aI00
aF0.779120555882771
asS'da8023ac-824f-4467-8046-690df018cc81'
p15
(lp16
g3
(g4
g5
Ntp17
Rp18
(dp19
g9
L18827573232903457977630133410277018258L
sbaF1679.8002734387555
aF3419.114813789148
aF4969.344924552732
aF145.3401010259021
aF80.04817064387646
aF64.36048794508
aF86.93454914808684
aF69.89728756386548
aF3229.0307436526177
aF6839.2292681280205
aF0.4721337181516131
aF0.8343713849852219
aF0.7260709066328762
aF0.22573890770227614
aI00
aF0.8074106990743889
as.