(dp0
S'919b6985-f1b0-4b60-855a-750ffeb7273b'
p1
(lp2
ccopy_reg
_reconstructor
p3
(cuuid
UUID
p4
c__builtin__
object
p5
Ntp6
Rp7
(dp8
S'int'
p9
L153459735313290429672163516203444128402L
sbaF4460.842182441618
aF39809.68101295729
aF26624.50733746654
aF66.87947921210615
aF66.33159918256527
aF55.765377725948085
aF77.60268243334258
aF65.2410457726399
aF16242.418595134264
aF54652.61193773118
aF0.29719382147078666
aF0.7970967195319515
aF0.6963888573114657
aF0.2743171798119933
aI01
aF0.342059021646945
asS'61134256-8252-41ee-9035-1436fdd5b61e'
p10
(lp11
g3
(g4
g5
Ntp12
Rp13
(dp14
g9
L153459735630203079729220866577619929746L
sbaF7414.663941843406
aF76415.03882447194
aF75673.34877964745
aF99.0293925695331
aF66.33159918256527
aF55.765377725948085
aF77.60268243334258
aF65.2410457726399
aF70867.71801953783
aF88635.333526425
aF0.7995425210241909
aF0.8963642088631337
aF0.6963888573114657
aF0.579553257150196
aI00
aF0.8442629976410774
asS'2587af1d-bfda-4522-a407-21fc7d51ce21'
p15
(lp16
g3
(g4
g5
Ntp17
Rp18
(dp19
g9
L153459735788659404757749541764707830418L
sbaF3293.006427146176
aF5474.399416037617
aF3186.593496889409
aF58.20900622548789
aF66.33159918256527
aF55.765377725948085
aF77.60268243334258
aF65.2410457726399
aF4374.526189598952
aF7579.473150474246
aF0.5771543882737074
aF0.6475900540669953
aF0.6963888573114657
aF0.5739420747582916
aI00
aF0.7802613164741193
as.