(dp0
S'919b6985-f1b0-4b60-855a-750ffeb7273b'
p1
(lp2
ccopy_reg
_reconstructor
p3
(cuuid
UUID
p4
c__builtin__
object
p5
Ntp6
Rp7
(dp8
S'int'
p9
L153459735313290429672163516203444128402L
sbaF4460.842182441618
aF40505.476563853554
aF26624.50733746654
aF65.7306359437475
aF66.69722359571404
aF56.5040206016003
aF79.39425358291598
aF67.26058894580493
aF16612.167843603336
aF54978.65824015837
aF0.3021566617911606
aF0.7931239537004693
aF0.6939969660574123
aF0.26770490017872456
aI01
aF0.3661529672831081
asS'61134256-8252-41ee-9035-1436fdd5b61e'
p10
(lp11
g3
(g4
g5
Ntp12
Rp13
(dp14
g9
L153459735630203079729220866577619929746L
sbaF7414.663941843406
aF77750.62460870184
aF75673.34877964745
aF97.32828406265703
aF66.69722359571404
aF56.5040206016003
aF79.39425358291598
aF67.26058894580493
aF72641.04701041848
aF88197.59031977422
aF0.8236171390516107
aF0.9132790895241697
aF0.6939969660574123
aF0.5633507894235961
aI00
aF0.8564109762723007
asS'2587af1d-bfda-4522-a407-21fc7d51ce21'
p15
(lp16
g3
(g4
g5
Ntp17
Rp18
(dp19
g9
L153459735788659404757749541764707830418L
sbaF3293.006427146176
aF5570.081236654775
aF3186.593496889409
aF57.209102731205085
aF66.69722359571404
aF56.5040206016003
aF79.39425358291598
aF67.26058894580493
aF5461.278956472992
aF6588.402204217367
aF0.8289231269118814
aF0.5807433839660889
aF0.6939969660574123
aF0.6996422546017486
aI00
aF0.9804666618745534
as.