(dp0
S'919b6985-f1b0-4b60-855a-750ffeb7273b'
p1
(lp2
ccopy_reg
_reconstructor
p3
(cuuid
UUID
p4
c__builtin__
object
p5
Ntp6
Rp7
(dp8
S'int'
p9
L153459735313290429672163516203444128402L
sbaF4460.842182441618
aF40192.38619515849
aF26624.50733746654
aF66.24266399160368
aF66.46350199205304
aF56.34570447698757
aF78.50450497626738
aF66.5536949592855
aF16428.70190308004
aF54849.03381198661
aF0.29952582135530237
aF0.7846715028134265
aF0.6921989249668029
aF0.2805768324744122
aI01
aF0.35739019461092114
asS'61134256-8252-41ee-9035-1436fdd5b61e'
p10
(lp11
g3
(g4
g5
Ntp12
Rp13
(dp14
g9
L153459735630203079729220866577619929746L
sbaF7414.663941843406
aF77149.64484522134
aF75673.34877964745
aF98.08645124869251
aF66.46350199205304
aF56.34570447698757
aF78.50450497626738
aF66.5536949592855
aF71324.24970530794
aF88913.4078614043
aF0.8021765380592111
aF0.9122426379254162
aF0.6921989249668029
aF0.5653330753095428
aI00
aF0.8354730229686722
asS'2587af1d-bfda-4522-a407-21fc7d51ce21'
p15
(lp16
g3
(g4
g5
Ntp17
Rp18
(dp19
g9
L153459735788659404757749541764707830418L
sbaF3293.006427146176
aF5527.026841644837
aF3186.593496889409
aF57.654749799280545
aF66.46350199205304
aF56.34570447698757
aF78.50450497626738
aF66.5536949592855
aF5488.530686472595
aF6518.096079207828
aF0.842045072637168
aF0.575312499840905
aF0.6921989249668029
aF0.7110549466718866
aI00
aF0.9930349252364429
as.