(dp0
S'28d371a4-724f-461e-82d2-f1dce9a5e0dd'
p1
(lp2
ccopy_reg
_reconstructor
p3
(cuuid
UUID
p4
c__builtin__
object
p5
Ntp6
Rp7
(dp8
S'int'
p9
L309934387555260756332785305703441943186L
sbaF29998.140515649826
aF37117.81279016696
aF2018.2340352311437
aF5.437373281234402
aF40.236309584227115
aF29.197718412331668
aF88.71839658589718
aF64.37903446602459
aF8459.851250019881
aF60674.33609102804
aF0.1394304708555492
aF0.0
aF0.31097767786123787
aF0.1442739768619227
aI01
aF0.2276438231145409
asS'9e53c6df-b341-4064-a40e-7f674bda1c48'
p10
(lp11
g3
(g4
g5
Ntp12
Rp13
(dp14
g9
L309934387079891781247199280142178241170L
sbaF15575.008277474684
aF59916.779319924506
aF114227.7390130872
aF190.64399039736492
aF40.236309584227115
aF29.197718412331668
aF88.71839658589718
aF64.37903446602459
aF57714.656491984795
aF132004.87011850163
aF0.43721611513403996
aF0.9241186387331485
aF0.31097767786123787
aF0.17962676071722825
aI01
aF0.9570826936346956
asS'bc63d18c-7a19-498a-927e-c4805b875e96'
p15
(lp16
g3
(g4
g5
Ntp17
Rp18
(dp19
g9
L309934387634488918847049643296985893522L
sbaF44476.558737070096
aF77178.49836787021
aF3577.8601433797344
aF4.635825027750495
aF40.236309584227115
aF29.197718412331668
aF88.71839658589718
aF64.37903446602459
aF45978.774467955125
aF79254.14278036493
aF0.580143483418589
aF0.060740209196016345
aF0.31097767786123787
aF0.5538377678737716
aI01
aF0.5957459064414281
asS'fd01a700-6fa5-443a-9048-08d9f1af4c74'
p20
(lp21
g3
(g4
g5
Ntp22
Rp23
(dp24
g9
L309934387317576268789992292922810092178L
sbaF2868.611527803704
aF6925.708139089273
aF4078.419439763379
aF58.8881217321943
aF40.236309584227115
aF29.197718412331668
aF88.71839658589718
aF64.37903446602459
aF4962.409275091604
aF8910.329831564755
aF0.5569276748333511
aF0.6675722377621853
aF0.31097767786123787
aF0.524062714806492
aI00
aF0.7116579686733048
asS'd3c47541-2039-49d0-8472-4c0c55b619b5'
p25
(lp26
g3
(g4
g5
Ntp27
Rp28
(dp29
g9
L309934387159119943761463617735722191506L
sbaF17951.483277916326
aF59781.252283656344
aF48545.45792172964
aF81.20515390240752
aF40.236309584227115
aF29.197718412331668
aF88.71839658589718
aF64.37903446602459
aF42194.0413737823
aF84084.15210952002
aF0.5018073003676644
aF0.7879273539633144
aF0.31097767786123787
aF0.18762860850810587
aI01
aF0.7034800807915021
as.