(dp0
S'9e53c6df-b341-4064-a40e-7f674bda1c48'
p1
(lp2
ccopy_reg
_reconstructor
p3
(cuuid
UUID
p4
c__builtin__
object
p5
Ntp6
Rp7
(dp8
S'int'
p9
L309934387079891781247199280142178241170L
sbaF15575.008277474684
aF62848.763823534486
aF114227.7390130872
aF181.75017623865057
aF40.66515314626816
aF30.296723686550802
aF94.05161002351352
aF70.07118922947215
aF61161.166662724674
aF131490.34445137167
aF0.46513808232773746
aF0.9279766926232997
aF0.2955985486923194
aF0.17935397388076543
aI01
aF0.9677782376732913
asS'bc63d18c-7a19-498a-927e-c4805b875e96'
p10
(lp11
g3
(g4
g5
Ntp12
Rp13
(dp14
g9
L309934387634488918847049643296985893522L
sbaF44476.558737070096
aF80955.17267838746
aF3577.8601433797344
aF4.419557175912137
aF40.66515314626816
aF30.296723686550802
aF94.05161002351352
aF70.07118922947215
aF46201.659564669695
aF82807.93199416762
aF0.5579376087779103
aF0.06274455798450204
aF0.2955985486923194
aF0.5342824889837758
aI01
aF0.5579376087779103
asS'd539f89b-8086-4333-b4e5-69b4e1a91586'
p15
(lp16
g3
(g4
g5
Ntp17
Rp18
(dp19
g9
L309934387555260756332785305703441943186L
sbaF29998.140515649826
aF12867.803034912837
aF2018.2340352311437
aF15.684371526011741
aF40.66515314626816
aF30.296723686550802
aF94.05161002351352
aF70.07118922947215
aF11161.475627909585
aF33722.701957884216
aF0.33097809427752817
aF0.21092309464392597
aF0.2955985486923194
aF0.33182619807020286
aI01
aF0.8628445809960644
asS'fd01a700-6fa5-443a-9048-08d9f1af4c74'
p20
(lp21
g3
(g4
g5
Ntp22
Rp23
(dp24
g9
L309934387317576268789992292922810092178L
sbaF2868.611527803704
aF7264.612685875936
aF4078.419439763379
aF56.14090683310285
aF40.66515314626816
aF30.296723686550802
aF94.05161002351352
aF70.07118922947215
aF6860.271196438166
aF7351.3724570048535
aF0.9331959762018676
aF0.5649795899799951
aF0.2955985486923194
aF0.8722841663791432
aI00
aF0.9365643197299314
asS'd3c47541-2039-49d0-8472-4c0c55b619b5'
p25
(lp26
g3
(g4
g5
Ntp27
Rp28
(dp29
g9
L309934387159119943761463617735722191506L
sbaF17951.483277916326
aF62706.60486921827
aF48545.45792172964
aF77.41681761112199
aF40.66515314626816
aF30.296723686550802
aF94.05161002351352
aF70.07118922947215
aF51936.10698656288
aF77267.43908230134
aF0.67216032527289
aF0.778590734602281
aF0.2955985486923194
aF0.2784709707235746
aI01
aF0.8264904602571665
as.