(dp0
S'9e53c6df-b341-4064-a40e-7f674bda1c48'
p1
(lp2
ccopy_reg
_reconstructor
p3
(cuuid
UUID
p4
c__builtin__
object
p5
Ntp6
Rp7
(dp8
S'int'
p9
L309934387079891781247199280142178241170L
sbaF15575.008277474684
aF63060.33881557222
aF114227.7390130872
aF181.14038262173057
aF40.814113290274236
aF30.45783306257827
aF94.71390610355016
aF70.68095098109286
aF61927.45066146934
aF130935.63544466479
aF0.47296101211225067
aF0.9239925355210292
aF0.2995181020320679
aF0.24403066248299124
aI01
aF0.9766593356172568
asS'bc63d18c-7a19-498a-927e-c4805b875e96'
p10
(lp11
g3
(g4
g5
Ntp12
Rp13
(dp14
g9
L309934387634488918847049643296985893522L
sbaF44476.558737070096
aF81227.70134836943
aF3577.8601433797344
aF4.404729032076145
aF40.814113290274236
aF30.45783306257827
aF94.71390610355016
aF70.68095098109286
aF47303.82280718422
aF81978.29742163504
aF0.5770286075092379
aF0.06226868584015924
aF0.2995181020320679
aF0.5540648244680231
aI01
aF0.5823607220436725
asS'd539f89b-8086-4333-b4e5-69b4e1a91586'
p15
(lp16
g3
(g4
g5
Ntp17
Rp18
(dp19
g9
L309934387555260756332785305703441943186L
sbaF29998.140515649826
aF12911.121394082127
aF2018.2340352311437
aF15.631748580384434
aF40.814113290274236
aF30.45783306257827
aF94.71390610355016
aF70.68095098109286
aF10373.569749510852
aF34553.926195452244
aF0.3002139233276522
aF0.2627283946719861
aF0.2995181020320679
aF0.31102328993170003
aI01
aF0.799696847824342
asS'fd01a700-6fa5-443a-9048-08d9f1af4c74'
p20
(lp21
g3
(g4
g5
Ntp22
Rp23
(dp24
g9
L309934387317576268789992292922810092178L
sbaF2868.611527803704
aF7289.068383612272
aF4078.419439763379
aF55.95254736438926
aF40.814113290274236
aF30.45783306257827
aF94.71390610355016
aF70.68095098109286
aF6684.071503197773
aF7552.0278479815815
aF0.8850697637435506
aF0.576534211339099
aF0.2995181020320679
aF0.7860921361417452
aI00
aF0.9143336682125639
asS'd3c47541-2039-49d0-8472-4c0c55b619b5'
p25
(lp26
g3
(g4
g5
Ntp27
Rp28
(dp29
g9
L309934387159119943761463617735722191506L
sbaF17951.483277916326
aF62917.70129528588
aF48545.45792172964
aF77.1570749126636
aF40.814113290274236
aF30.45783306257827
aF94.71390610355016
aF70.68095098109286
aF49287.55401414364
aF80127.0884807882
aF0.6151172462226823
aF0.7826801721255432
aF0.2995181020320679
aF0.24459162767231082
aI01
aF0.7812371644751172
as.