(dp0
S'e5a0b9f5-02ea-43be-9493-8f5f18551b69'
p1
(lp2
ccopy_reg
_reconstructor
p3
(cuuid
UUID
p4
c__builtin__
object
p5
Ntp6
Rp7
(dp8
S'int'
p9
L144767072957940498972114358980624435858L
sbaF2358.2181317722125
aF3525.1608889183226
aF3034.1931625234356
aF86.07247323268874
aF65.55332155179711
aF35.00680986517886
aF79.19185168138043
aF42.290062945033625
aF3425.27365822158
aF5492.2985249923895
aF0.6236503064491248
aF0.831707241774831
aF0.5744608588300816
aF0.2009021736507282
aI01
aF0.6648697627016026
asS'b79092e5-9a3d-4bd3-bac5-088ae23ca957'
p10
(lp11
g3
(g4
g5
Ntp12
Rp13
(dp14
g9
L144767072878712336457850021387080485522L
sbaF9482.272001906333
aF6346.163313541062
aF24564.67569123643
aF387.0791607083574
aF65.55332155179711
aF35.00680986517886
aF79.19185168138043
aF42.290062945033625
aF6283.206315115721
aF34109.904691568096
aF0.184204745569662
aF0.9243468654856728
aF0.5744608588300816
aF0.04937563292269248
aI00
aF0.740217698528107
asS'e8ed3b53-8340-43a3-992e-2975bae44d6f'
p15
(lp16
g3
(g4
g5
Ntp17
Rp18
(dp19
g9
L144767073512537636571964722135432088210L
sbaF7228.857758566697
aF4898.802313451524
aF1410.6918956050174
aF28.796669172206162
aF65.55332155179711
aF35.00680986517886
aF79.19185168138043
aF42.290062945033625
aF4598.498567760957
aF8939.853399862284
aF0.5143818765341046
aF0.35783680402016305
aF0.5744608588300816
aF0.44946770065307545
aI00
aF0.7594429433703275
asS'bfe0b742-04ba-4380-8f67-a276183ae959'
p20
(lp21
g3
(g4
g5
Ntp22
Rp23
(dp24
g9
L144767074146362936686079422883783690898L
sbaF2120.6020146437445
aF3488.3011011401522
aF2162.2376304479817
aF61.985406871592986
aF65.55332155179711
aF35.00680986517886
aF79.19185168138043
aF42.290062945033625
aF3319.642828284297
aF4451.497917947582
aF0.7457361296071007
aF0.6503164799987944
aF0.5744608588300816
aF0.5321887209209092
aI00
aF0.7874104260160864
as.