(dp0
S'e5a0b9f5-02ea-43be-9493-8f5f18551b69'
p1
(lp2
ccopy_reg
_reconstructor
p3
(cuuid
UUID
p4
c__builtin__
object
p5
Ntp6
Rp7
(dp8
S'int'
p9
L144767072957940498972114358980624435858L
sbaF2358.2181317722125
aF4060.0485840096107
aF3034.1931625234356
aF74.7329274450932
aF62.16431814746469
aF34.1071178169277
aF86.49266081324603
aF47.45512314088274
aF3944.6660182683304
aF5507.793860036928
aF0.716197105140366
aF0.7042838460271296
aF0.531386828177062
aF0.4391411844579833
aI01
aF0.7903855325142951
asS'b79092e5-9a3d-4bd3-bac5-088ae23ca957'
p10
(lp11
g3
(g4
g5
Ntp12
Rp13
(dp14
g9
L144767072878712336457850021387080485522L
sbaF9482.272001906333
aF7309.093736978963
aF24564.67569123643
aF336.08374136667794
aF62.16431814746469
aF34.1071178169277
aF86.49266081324603
aF47.45512314088274
aF7044.353445044613
aF34311.687985077115
aF0.20530477684771303
aF0.9091142511559296
aF0.531386828177062
aF0.06056275678701891
aI00
aF0.8059058006498242
asS'e8ed3b53-8340-43a3-992e-2975bae44d6f'
p15
(lp16
g3
(g4
g5
Ntp17
Rp18
(dp19
g9
L144767073512537636571964722135432088210L
sbaF7228.857758566697
aF5642.118479924133
aF1410.6918956050174
aF25.00287614704586
aF62.16431814746469
aF34.1071178169277
aF86.49266081324603
aF47.45512314088274
aF5487.100169190082
aF8794.567964905766
aF0.6239192409548769
aF0.2727347424690377
aF0.531386828177062
aF0.5823170321768788
aI00
aF0.814049460459426
asS'bfe0b742-04ba-4380-8f67-a276183ae959'
p20
(lp21
g3
(g4
g5
Ntp22
Rp23
(dp24
g9
L144767074146362936686079422883783690898L
sbaF2120.6020146437445
aF4017.5959034394564
aF2162.2376304479817
aF53.81919143726959
aF62.16431814746469
aF34.1071178169277
aF86.49266081324603
aF47.45512314088274
aF3933.55831859211
aF4366.877229939072
aF0.9007714463836649
aF0.542498901369596
aF0.531386828177062
aF0.8175816613278083
aI00
aF0.9674106999565837
as.