(dp0
S'e5a0b9f5-02ea-43be-9493-8f5f18551b69'
p1
(lp2
ccopy_reg
_reconstructor
p3
(cuuid
UUID
p4
c__builtin__
object
p5
Ntp6
Rp7
(dp8
S'int'
p9
L144767072957940498972114358980624435858L
sbaF2358.2181317722125
aF3951.6663529079365
aF3034.1931625234356
aF76.78262513966155
aF63.156248144189554
aF33.34135217864466
aF85.52704048785255
aF45.151307455635205
aF3220.840463952777
aF6123.237183250807
aF0.526002891536343
aF0.7890901558647787
aF0.5492937162113078
aF0.2064575213963613
aI01
aF0.6004326858657532
asS'b79092e5-9a3d-4bd3-bac5-088ae23ca957'
p10
(lp11
g3
(g4
g5
Ntp12
Rp13
(dp14
g9
L144767072878712336457850021387080485522L
sbaF9482.272001906333
aF7113.978858387375
aF24564.67569123643
aF345.3014997686519
aF63.156248144189554
aF33.34135217864466
aF85.52704048785255
aF45.151307455635205
aF5902.212693945977
aF35258.71385758417
aF0.16739727710392385
aF0.8716841295538691
aF0.5492937162113078
aF0.01408630484471282
aI00
aF0.7526029524483091
asS'e8ed3b53-8340-43a3-992e-2975bae44d6f'
p15
(lp16
g3
(g4
g5
Ntp17
Rp18
(dp19
g9
L144767073512537636571964722135432088210L
sbaF7228.857758566697
aF5491.503191377454
aF1410.6918956050174
aF25.688629259471824
aF63.156248144189554
aF33.34135217864466
aF85.52704048785255
aF45.151307455635205
aF5491.503191377454
aF8639.549654171715
aF0.6356237779970177
aF0.2410836616544318
aF0.5492937162113078
aF0.6006064399137362
aI00
aF0.8650600154736946
asS'bfe0b742-04ba-4380-8f67-a276183ae959'
p20
(lp21
g3
(g4
g5
Ntp22
Rp23
(dp24
g9
L144767074146362936686079422883783690898L
sbaF2120.6020146437445
aF3910.346938637734
aF2162.2376304479817
aF55.2952887398081
aF63.156248144189554
aF33.34135217864466
aF85.52704048785255
aF45.151307455635205
aF3176.7461712997215
aF5016.440412429741
aF0.6332670001278948
aF0.471413593532076
aF0.5492937162113078
aF0.5802945718470337
aI00
aF0.8123949667766355
as.