(dp0
S'141e82b2-58ed-4e5d-9e57-08e40e41aeb5'
p1
(lp2
ccopy_reg
_reconstructor
p3
(cuuid
UUID
p4
c__builtin__
object
p5
Ntp6
Rp7
(dp8
S'int'
p9
L119383322636934324832784095131286293138L
sbaF13315.267061800205
aF12434.122065459813
aF18853.134115075587
aF151.6241678811153
aF84.93340916548469
aF74.67602295698057
aF93.00449793099904
aF81.77236838645744
aF11208.679467151958
aF33393.84377518365
aF0.33565107217401524
aF0.0966303724248647
aF0.7640300671624864
aF0.7294187159216025
aI00
aF0.845205717406163
asS'39b7861e-1601-4895-a2bc-44b4cd8d571d'
p10
(lp11
g3
(g4
g5
Ntp12
Rp13
(dp14
g9
L119383321844652699690140719195846789778L
sbaF3534.5480833630545
aF19815.43360615597
aF15134.673355354245
aF76.37820930979994
aF84.93340916548469
aF74.67602295698057
aF93.00449793099904
aF81.77236838645744
aF18163.49879910774
aF20321.15624576553
aF0.8938221122576429
aF0.7573234698331035
aF0.7640300671624864
aF0.6512058973213979
aI00
aF0.9091970224770182
as.