(dp0
S'39b7861e-1601-4895-a2bc-44b4cd8d571d'
p1
(lp2
ccopy_reg
_reconstructor
p3
(cuuid
UUID
p4
c__builtin__
object
p5
Ntp6
Rp7
(dp8
S'int'
p9
L119383321844652699690140719195846789778L
sbaF3534.5480833630545
aF21059.479931157184
aF15134.673355354245
aF71.86632055886017
aF80.41856750949076
aF70.81931794112778
aF93.5892119881202
aF82.41783415085186
aF18467.848381380732
aF21260.85298849376
aF0.8686315827203837
aF0.7359597364917774
aF0.7265141300705509
aF0.5437448432139746
aI00
aF0.8714197030751848
asS'55fba560-3c63-4000-a9b0-bd7b6224e4a6'
p10
(lp11
g3
(g4
g5
Ntp12
Rp13
(dp14
g9
L119383322636934324832784095131286293138L
sbaF13315.267061800205
aF11609.736012531936
aF18853.134115075587
aF162.39072184522445
aF80.41856750949076
aF70.81931794112778
aF93.5892119881202
aF82.41783415085186
aF9963.344354508903
aF33814.79283489883
aF0.29464454811700497
aF0.8068743294919589
aF0.7265141300705509
aF0.07192160328562704
aI00
aF0.8498376129777153
as.