(dp0
S'141e82b2-58ed-4e5d-9e57-08e40e41aeb5'
p1
(lp2
ccopy_reg
_reconstructor
p3
(cuuid
UUID
p4
c__builtin__
object
p5
Ntp6
Rp7
(dp8
S'int'
p9
L119383322636934324832784095131286293138L
sbaF13315.267061800205
aF12308.555515560953
aF18853.134115075587
aF153.17097194094566
aF86.43780945338376
aF75.38715964757637
aF93.696012896796
aF81.71743739528122
aF11212.770616988328
aF33264.18607544842
aF0.33708236815282344
aF0.06155488307722773
aF0.7747448791999609
aF0.7274374923790401
aI00
aF0.8918130329446611
asS'39b7861e-1601-4895-a2bc-44b4cd8d571d'
p10
(lp11
g3
(g4
g5
Ntp12
Rp13
(dp14
g9
L119383321844652699690140719195846789778L
sbaF3534.5480833630545
aF19615.326544348474
aF15134.673355354245
aF77.15738670542201
aF86.43780945338376
aF75.38715964757637
aF93.696012896796
aF81.71743739528122
aF17748.257887962485
aF20536.29009510329
aF0.864238760056979
aF0.7769107556551619
aF0.7747448791999609
aF0.5865642011722401
aI00
aF0.864238760056979
as.