(dp0
S'480c3c42-0e7e-483e-bd06-d5391c075842'
p1
(lp2
ccopy_reg
_reconstructor
p3
(cuuid
UUID
p4
c__builtin__
object
p5
Ntp6
Rp7
(dp8
S'int'
p9
L172093922867359671544720243934828087954L
sbaF10643.395430406295
aF42166.80769810346
aF68152.15496994021
aF161.62512338586515
aF64.40703416935632
aF53.718865275049446
aF96.61483571183302
aF80.58187137647022
aF40853.70935562576
aF80108.64874282418
aF0.5099787600559831
aF0.8926063597066534
aF0.5855624947513539
aF0.32964592788462
aI00
aF0.9590680712882473
asS'185cb871-2be1-47fe-b987-97f9cd81f76c'
p10
(lp11
g3
(g4
g5
Ntp12
Rp13
(dp14
g9
L172093922550447021487662893560652286610L
sbaF2791.9620982498022
aF7336.018072129903
aF3349.4123177149327
aF45.65708923809236
aF64.40703416935632
aF53.718865275049446
aF96.61483571183302
aF80.58187137647022
aF5300.700228379474
aF8176.692259715167
aF0.6482695031210729
aF0.47451747134415306
aF0.5855624947513539
aF0.5190768728610389
aI00
aF0.7225582293093361
as.