(dp0
S'480c3c42-0e7e-483e-bd06-d5391c075842'
p1
(lp2
ccopy_reg
_reconstructor
p3
(cuuid
UUID
p4
c__builtin__
object
p5
Ntp6
Rp7
(dp8
S'int'
p9
L172093922867359671544720243934828087954L
sbaF10643.395430406295
aF39531.02751767795
aF68152.15496994021
aF172.40167850295097
aF66.76199890373417
aF56.08672537525982
aF93.88738208102677
aF78.8747476326103
aF39274.5355561172
aF79052.04236190722
aF0.4968187333644703
aF0.9146150032445115
aF0.618197330173622
aF0.29530974896149087
aI00
aF0.9508955647950836
asS'185cb871-2be1-47fe-b987-97f9cd81f76c'
p10
(lp11
g3
(g4
g5
Ntp12
Rp13
(dp14
g9
L172093922550447021487662893560652286610L
sbaF2791.9620982498022
aF6877.455233410856
aF3349.4123177149327
aF48.70133216488856
aF66.76199890373417
aF56.08672537525982
aF93.88738208102677
aF78.8747476326103
aF5516.156923828951
aF7502.672725546638
aF0.7352255823509947
aF0.50000969579925
aF0.618197330173622
aF0.5513649069312352
aI00
aF0.7579324015911524
as.