(dp0
S'480c3c42-0e7e-483e-bd06-d5391c075842'
p1
(lp2
ccopy_reg
_reconstructor
p3
(cuuid
UUID
p4
c__builtin__
object
p5
Ntp6
Rp7
(dp8
S'int'
p9
L172093922867359671544720243934828087954L
sbaF10643.395430406295
aF38998.03331724698
aF68152.15496994021
aF174.75792795889467
aF66.52725910164357
aF55.12685754744926
aF92.29584117509815
aF76.47962290026072
aF38891.393500080834
aF78902.19021751266
aF0.4929063869186325
aF0.926498942286521
aF0.625923674147997
aF0.2617556909451063
aI00
aF0.9484830362351134
asS'185cb871-2be1-47fe-b987-97f9cd81f76c'
p10
(lp11
g3
(g4
g5
Ntp12
Rp13
(dp14
g9
L172093922550447021487662893560652286610L
sbaF2791.9620982498022
aF6784.726964420315
aF3349.4123177149327
aF49.36694336086825
aF66.52725910164357
aF55.12685754744926
aF92.29584117509815
aF76.47962290026072
aF4537.582390396701
aF8388.518989988348
aF0.5409277127240555
aF0.5649004523757702
aF0.625923674147997
aF0.4370332746974855
aI00
aF0.6294692524065031
as.