(dp0
S'c2eddf15-d5d9-4218-a80f-73fa5e29d9ea'
p1
(lp2
ccopy_reg
_reconstructor
p3
(cuuid
UUID
p4
c__builtin__
object
p5
Ntp6
Rp7
(dp8
S'int'
p9
L293176835653715933815412626504748550802L
sbaF21363.748569007228
aF44039.81575688553
aF44526.49771476893
aF101.10509535409966
aF59.76920770969819
aF48.71509910787551
aF94.87844636526582
aF77.33100529514304
aF40598.1549990489
aF69331.90704161275
aF0.5855623583912388
aF0.9475806968496638
aF0.4780851417768787
aF0.0673260740694793
aI00
aF0.9216787549525657
asS'ee4a0c0e-57fb-4760-b5ee-7be841a38d6e'
p10
(lp11
g3
(g4
g5
Ntp12
Rp13
(dp14
g9
L293176835336803283758355276130572749458L
sbaF3223.93563141165
aF21471.747815776413
aF2208.115208421506
aF10.283816796688942
aF59.76920770969819
aF48.71509910787551
aF94.87844636526582
aF77.33100529514304
aF5432.050839833156
aF21471.747815776413
aF0.25298596492652287
aF0.13292150388568694
aF0.4780851417768787
aF0.16701207811131244
aI01
aF0.25298596492652287
asS'104d40b1-bfca-440e-a184-35e548e21935'
p15
(lp16
g3
(g4
g5
Ntp17
Rp18
(dp19
g9
L293176835732944096329676964098292501138L
sbaF26670.225717483394
aF42813.80246652675
aF1921.1030991162268
aF4.487111605231068
aF59.76920770969819
aF48.71509910787551
aF94.87844636526582
aF77.33100529514304
aF27075.587477684236
aF44329.54380544215
aF0.6107797453661205
aF0.08643670227754453
aF0.4780851417768787
aF0.5765314820081471
aI00
aF0.6324032418950132
as.