(dp0
S'c2eddf15-d5d9-4218-a80f-73fa5e29d9ea'
p1
(lp2
ccopy_reg
_reconstructor
p3
(cuuid
UUID
p4
c__builtin__
object
p5
Ntp6
Rp7
(dp8
S'int'
p9
L293176835653715933815412626504748550802L
sbaF21363.748569007228
aF46291.44469808685
aF44526.49771476893
aF96.18731496753034
aF57.83783576254182
aF47.23104225034568
aF96.50667227968434
aF78.8084591303822
aF41443.296810141765
aF70738.39417172124
aF0.5858670852710615
aF0.9132749010813345
aF0.46266840244569524
aF0.08782068347235666
aI00
aF0.8949647523907286
asS'ee4a0c0e-57fb-4760-b5ee-7be841a38d6e'
p10
(lp11
g3
(g4
g5
Ntp12
Rp13
(dp14
g9
L293176835336803283758355276130572749458L
sbaF3223.93563141165
aF22569.536441120967
aF2208.115208421506
aF9.783609043907484
aF57.83783576254182
aF47.23104225034568
aF96.50667227968434
aF78.8084591303822
aF5422.686335447677
aF22578.900945506444
aF0.24016608906408604
aF0.1293020667953285
aF0.46266840244569524
aF0.15795402353748067
aI01
aF0.24026573827044662
asS'104d40b1-bfca-440e-a184-35e548e21935'
p15
(lp16
g3
(g4
g5
Ntp17
Rp18
(dp19
g9
L293176835732944096329676964098292501138L
sbaF26670.225717483394
aF45002.748879215505
aF1921.1030991162268
aF4.268857229749108
aF57.83783576254182
aF47.23104225034568
aF96.50667227968434
aF78.8084591303822
aF27622.006573972867
aF45972.071121842266
aF0.6008432054489077
aF0.08098652371907741
aF0.46266840244569524
aF0.5683658005053752
aI00
aF0.6137848745219667
as.