(dp0
S'c2eddf15-d5d9-4218-a80f-73fa5e29d9ea'
p1
(lp2
ccopy_reg
_reconstructor
p3
(cuuid
UUID
p4
c__builtin__
object
p5
Ntp6
Rp7
(dp8
S'int'
p9
L293176835653715933815412626504748550802L
sbaF21363.748569007228
aF44660.037789852984
aF44526.49771476893
aF99.70098530656774
aF59.91139969242695
aF48.79732888668825
aF96.44353587549207
aF78.55244516522932
aF40898.11868779397
aF69652.16538583518
aF0.5871765574155605
aF0.9258627886799567
aF0.47800591008090404
aF0.0950935646380159
aI00
aF0.9142351844300255
asS'ee4a0c0e-57fb-4760-b5ee-7be841a38d6e'
p10
(lp11
g3
(g4
g5
Ntp12
Rp13
(dp14
g9
L293176835336803283758355276130572749458L
sbaF3223.93563141165
aF21774.138978245875
aF2208.115208421506
aF10.140998964999678
aF59.91139969242695
aF48.79732888668825
aF96.44353587549207
aF78.55244516522932
aF5432.050839833156
aF21774.138978245875
aF0.24947258972031977
aF0.1496239673028828
aF0.47800591008090404
aF0.16792744930937586
aI01
aF0.24947258972031977
asS'104d40b1-bfca-440e-a184-35e548e21935'
p15
(lp16
g3
(g4
g5
Ntp17
Rp18
(dp19
g9
L293176835732944096329676964098292501138L
sbaF26670.225717483394
aF43416.75829521241
aF1921.1030991162268
aF4.424796264275834
aF59.91139969242695
aF48.79732888668825
aF96.44353587549207
aF78.55244516522932
aF27527.054789993013
aF44481.03232181902
aF0.6188492791901848
aF0.08348102879613441
aF0.47800591008090404
aF0.5873517834097759
aI00
aF0.6340191177522444
as.