(dp0
S'df0e059d-da52-42c5-93d7-74a28da84054'
p1
(lp2
ccopy_reg
_reconstructor
p3
(cuuid
UUID
p4
c__builtin__
object
p5
Ntp6
Rp7
(dp8
S'int'
p9
L148080900661880157521516858432381962898L
sbaF3693.2699791922328
aF17043.539646042773
aF10818.49911875971
aF63.47565906751996
aF93.11739196116643
aF86.75359827979608
aF91.3050563264601
aF85.06512060349858
aF13547.42582871156
aF18007.882915283153
aF0.7523053038741141
aF0.6619842482301276
aF0.8150350532332836
aF0.4216691535912114
aI01
aF0.7562475624683956
asS'403a077c-ae69-4e6a-987a-4e6bfee74d16'
p10
(lp11
g3
(g4
g5
Ntp12
Rp13
(dp14
g9
L148080901058020970092838546400101714578L
sbaF9317.207250364936
aF11727.44997296061
aF1684.8560510249622
aF14.366772443367056
aF93.11739196116643
aF86.75359827979608
aF91.3050563264601
aF85.06512060349858
aF10551.76757204122
aF12177.745702309292
aF0.8664795463778051
aF0.18923130915053982
aF0.8150350532332836
aF0.8430665564299187
aI00
aF0.8664795463778051
asS'39f90a35-71f5-4d79-89fc-5b9916ef4860'
p15
(lp16
g3
(g4
g5
Ntp17
Rp18
(dp19
g9
L148080901374933620149895896774277515922L
sbaF3201.5717988323613
aF17044.08755531079
aF12327.610084600074
aF72.32777961621592
aF93.11739196116643
aF86.75359827979608
aF91.3050563264601
aF85.06512060349858
aF14523.78413749268
aF18049.485301250545
aF0.8046647256188746
aF0.8226820751694383
aF0.8150350532332836
aF0.5452783685586554
aI01
aF0.8046647256188746
as.