(dp0
S'df0e059d-da52-42c5-93d7-74a28da84054'
p1
(lp2
ccopy_reg
_reconstructor
p3
(cuuid
UUID
p4
c__builtin__
object
p5
Ntp6
Rp7
(dp8
S'int'
p9
L148080900661880157521516858432381962898L
sbaF3693.2699791922328
aF17208.91744140162
aF10818.49911875971
aF62.86565761964962
aF90.18680215285708
aF84.60218728264913
aF89.28957768452338
aF83.76052142143045
aF13642.853946163084
aF18077.83259319048
aF0.7546730989920797
aF0.6571260798443278
aF0.8008968289694973
aF0.4300650033616824
aI01
aF0.7583836995990243
asS'403a077c-ae69-4e6a-987a-4e6bfee74d16'
p10
(lp11
g3
(g4
g5
Ntp12
Rp13
(dp14
g9
L148080901058020970092838546400101714578L
sbaF9317.207250364936
aF11841.244399587238
aF1684.8560510249622
aF14.228707677747895
aF90.18680215285708
aF84.60218728264913
aF89.28957768452338
aF83.76052142143045
aF10350.640736233368
aF12492.66696474377
aF0.8285373143656571
aF0.18937096413217847
aF0.8008968289694973
aF0.7994503681103925
aI00
aF0.8285373143656571
asS'39f90a35-71f5-4d79-89fc-5b9916ef4860'
p15
(lp16
g3
(g4
g5
Ntp17
Rp18
(dp19
g9
L148080901374933620149895896774277515922L
sbaF3201.5717988323613
aF17209.47066717248
aF12327.610084600074
aF71.63270923907797
aF90.18680215285708
aF84.60218728264913
aF89.28957768452338
aF83.76052142143045
aF13346.18122105484
aF19392.47132955008
aF0.6882145650367957
aF0.7813702129463962
aF0.8008968289694973
aF0.3120250877517084
aI01
aF0.7210376690696313
as.