(dp0
S'df0e059d-da52-42c5-93d7-74a28da84054'
p1
(lp2
ccopy_reg
_reconstructor
p3
(cuuid
UUID
p4
c__builtin__
object
p5
Ntp6
Rp7
(dp8
S'int'
p9
L148080900661880157521516858432381962898L
sbaF3693.2699791922328
aF16854.317780737816
aF10818.49911875971
aF64.18829441511882
aF92.50292454211957
aF86.414878898986
aF89.69554465730458
aF83.7922656792356
aF13695.865582672011
aF17670.221296017753
aF0.7750817238354891
aF0.6735222179266452
aF0.8152276984066312
aF0.4568217146743863
aI01
aF0.7757322910584931
asS'403a077c-ae69-4e6a-987a-4e6bfee74d16'
p10
(lp11
g3
(g4
g5
Ntp12
Rp13
(dp14
g9
L148080901058020970092838546400101714578L
sbaF9317.207250364936
aF11597.24873511685
aF1684.8560510249622
aF14.52806686747317
aF92.50292454211957
aF86.414878898986
aF89.69554465730458
aF83.7922656792356
aF10049.814673781793
aF12549.497362724951
aF0.8008141189488736
aF0.19544440354359477
aF0.8152276984066312
aF0.7676607461694506
aI00
aF0.8008141189488736
asS'39f90a35-71f5-4d79-89fc-5b9916ef4860'
p15
(lp16
g3
(g4
g5
Ntp17
Rp18
(dp19
g9
L148080901374933620149895896774277515922L
sbaF3201.5717988323613
aF16854.85960697287
aF12327.610084600074
aF73.13979690166111
aF92.50292454211957
aF86.414878898986
aF89.69554465730458
aF83.7922656792356
aF13821.984558065342
aF18562.056932339965
aF0.7446364704325319
aF0.8307771698796368
aF0.8152276984066312
aF0.35205857632455134
aI01
aF0.7553379174928854
as.