(dp0
S'61134256-8252-41ee-9035-1436fdd5b61e'
p1
(lp2
ccopy_reg
_reconstructor
p3
(cuuid
UUID
p4
c__builtin__
object
p5
Ntp6
Rp7
(dp8
S'int'
p9
L218053934498838579600017507220781451922L
sbaF3742.670417134432
aF54256.61485102802
aF49136.07484019702
aF90.56236732628744
aF90.4889620342242
aF84.41080464617103
aF91.47559877838887
aF85.33116884967374
aF50621.95043256337
aF56513.40967579611
aF0.8957511274398301
aF0.8992906704652566
aF0.8816881837965633
aF0.6265330462777846
aI00
aF0.9290077212827145
as.