(dp0
S'61134256-8252-41ee-9035-1436fdd5b61e'
p1
(lp2
ccopy_reg
_reconstructor
p3
(cuuid
UUID
p4
c__builtin__
object
p5
Ntp6
Rp7
(dp8
S'int'
p9
L218053934498838579600017507220781451922L
sbaF3742.670417134432
aF60538.816359558885
aF49136.07484019702
aF81.16457802604295
aF75.43669224652263
aF72.30383403110584
aF85.08902024161539
aF81.55530437779453
aF47793.37714149704
aF65624.18447539331
aF0.7282890831110872
aF0.7509989949858161
aF0.7837359061058411
aF0.1933014670580775
aI00
aF0.7762377924136076
as.