(dp0
S'61134256-8252-41ee-9035-1436fdd5b61e'
p1
(lp2
ccopy_reg
_reconstructor
p3
(cuuid
UUID
p4
c__builtin__
object
p5
Ntp6
Rp7
(dp8
S'int'
p9
L218053934498838579600017507220781451922L
sbaF3742.670417134432
aF55920.95896107088
aF49136.07484019702
aF87.86701042520188
aF87.77968389307865
aF81.88572563534713
aF91.45881776430272
aF85.31782442396582
aF50210.31922140624
aF58589.38499699611
aF0.8569866234981052
aF0.8765584001617936
aF0.8665392646048802
aF0.39354295228320435
aI00
aF0.8978801535996532
as.