(dp0
S'39f90a35-71f5-4d79-89fc-5b9916ef4860'
p1
(lp2
ccopy_reg
_reconstructor
p3
(cuuid
UUID
p4
c__builtin__
object
p5
Ntp6
Rp7
(dp8
S'int'
p9
L29867284189315156754747291187100437138L
sbaF4289.003437968656
aF22603.22567638804
aF15325.721276847164
aF67.80324851092755
aF55.070099602991064
aF47.11767879657543
aF90.28864104469557
aF77.25047200554185
aF19611.21578855478
aF22606.734602649078
aF0.8674944052404949
aF0.6890021507112898
aF0.4987321030213462
aF0.6098353910440727
aI01
aF0.8672864493680545
asS'2131d157-c89d-40c5-b2f1-c76b3e24c740'
p10
(lp11
g3
(g4
g5
Ntp12
Rp13
(dp14
g9
L29867283317805369097839577658116983442L
sbaF7001.678763475247
aF29526.428577444887
aF25494.69070107476
aF86.34532494915435
aF55.070099602991064
aF47.11767879657543
aF90.28864104469557
aF77.25047200554185
aF23553.420540918552
aF38469.377501076335
aF0.6122641454299476
aF0.8196176114102464
aF0.4987321030213462
aF0.08488292684832693
aI01
aF0.7925097833939916
as.