(dp0
S'39f90a35-71f5-4d79-89fc-5b9916ef4860'
p1
(lp2
ccopy_reg
_reconstructor
p3
(cuuid
UUID
p4
c__builtin__
object
p5
Ntp6
Rp7
(dp8
S'int'
p9
L29867284189315156754747291187100437138L
sbaF4289.003437968656
aF18281.56579831946
aF15325.721276847164
aF83.83155713202632
aF64.3850497347489
aF54.46000165068104
aF85.37785875657238
aF72.21673894747482
aF17346.37858248023
aF20549.91193065505
aF0.8441096312731154
aF0.8007516411887803
aF0.5978138409431555
aF0.6329058811036011
aI01
aF0.8472932136308471
asS'2131d157-c89d-40c5-b2f1-c76b3e24c740'
p10
(lp11
g3
(g4
g5
Ntp12
Rp13
(dp14
g9
L29867283317805369097839577658116983442L
sbaF7001.678763475247
aF23881.07584979859
aF25494.69070107476
aF106.75687670616306
aF64.3850497347489
aF54.46000165068104
aF85.37785875657238
aF72.21673894747482
aF22116.140614206382
aF34261.30470014221
aF0.6455136722833146
aF0.9460106144452078
aF0.5978138409431555
aF0.059735489389999584
aI01
aF0.8712224699470432
as.