(dp0
S'39f90a35-71f5-4d79-89fc-5b9916ef4860'
p1
(lp2
ccopy_reg
_reconstructor
p3
(cuuid
UUID
p4
c__builtin__
object
p5
Ntp6
Rp7
(dp8
S'int'
p9
L29867284189315156754747291187100437138L
sbaF4289.003437968656
aF20146.755414629035
aF15325.721276847164
aF76.07041908951153
aF61.3715619041282
aF52.38089956607498
aF89.68485772733678
aF76.54642279679949
aF18078.571250685625
aF21682.90887875923
aF0.8337705679515885
aF0.753051208775724
aF0.5599154434265982
aF0.46348784134209303
aI01
aF0.8513416135267774
asS'2131d157-c89d-40c5-b2f1-c76b3e24c740'
p10
(lp11
g3
(g4
g5
Ntp12
Rp13
(dp14
g9
L29867283317805369097839577658116983442L
sbaF7001.678763475247
aF26317.559419791298
aF25494.69070107476
aF96.87330916369956
aF61.3715619041282
aF52.38089956607498
aF89.68485772733678
aF76.54642279679949
aF22821.11649547194
aF35992.812388869366
aF0.6340464937529938
aF0.8723522872772651
aF0.5599154434265982
aF0.0671874447495191
aI01
aF0.8319096159853695
as.